EXPORTS
    _ZN5veins10BBoxLookupC1ERKSt6vectorIPNS_8ObstacleESaIS3_EESt8functionIFNS0_3BoxES3_EEddi @1
    _ZN5veins10BBoxLookupC2ERKSt6vectorIPNS_8ObstacleESaIS3_EESt8functionIFNS0_3BoxES3_EEddi @2
    _ZN5veins10BaseModule10initializeEi @3
    _ZN5veins10BaseModule13receiveSignalEPN7omnetpp10cComponentEiPNS1_7cObjectES5_ @4
    _ZN5veins10BaseModule15handleHostStateERKNS_9HostStateE @5
    _ZN5veins10BaseModule15switchHostStateENS_9HostState6StatesE @6
    _ZN5veins10BaseModule18catHostStateSignalE @7 DATA
    _ZN5veins10BaseModule8findHostEv @8
    _ZN5veins10BaseModuleC1Ej @9
    _ZN5veins10BaseModuleC1Ev @10
    _ZN5veins10BaseModuleC2Ej @11
    _ZN5veins10BaseModuleC2Ev @12
    _ZN5veins10MyVeinsApp10initializeEi @13
    _ZN5veins10MyVeinsApp13handleSelfMsgEPN7omnetpp8cMessageE @14
    _ZN5veins10MyVeinsApp20handlePositionUpdateEPN7omnetpp7cObjectE @15
    _ZN5veins10MyVeinsApp5onBSMEPNS_17DemoSafetyMessageE @16
    _ZN5veins10MyVeinsApp5onWSAEPNS_23DemoServiceAdvertismentE @17
    _ZN5veins10MyVeinsApp5onWSMEPNS_15BaseFrame1609_4E @18
    _ZN5veins10MyVeinsApp6finishEv @19
    _ZN5veins10TraCIColor11fromTkColorENSt7__cxx1112basic_stringIcSt11char_traitsIcESaIcEEE @20
    _ZN5veins10TraCIColorC1Ehhhh @21
    _ZN5veins10TraCIColorC2Ehhhh @22
    _ZN5veins11AirFrame11p12parsimUnpackEPN7omnetpp11cCommBufferE @23
    _ZN5veins11AirFrame11p18setWasTransmittingEb @24
    _ZN5veins11AirFrame11p21setUnderMinPowerLevelEb @25
    _ZN5veins11AirFrame11p4copyERKS0_ @26
    _ZN5veins11AirFrame11pC1EPKcs @27
    _ZN5veins11AirFrame11pC1ERKS0_ @28
    _ZN5veins11AirFrame11pC2EPKcs @29
    _ZN5veins11AirFrame11pC2ERKS0_ @30
    _ZN5veins11AirFrame11pD0Ev @31
    _ZN5veins11AirFrame11pD1Ev @32
    _ZN5veins11AirFrame11pD2Ev @33
    _ZN5veins11AirFrame11paSERKS0_ @34
    _ZN5veins11BaseDecider13processSignalEPNS_8AirFrameE @35
    _ZN5veins11BaseDecider14getChannelInfoERKN7omnetpp7SimTimeES4_RNSt7__cxx114listIPNS_8AirFrameESaIS8_EEE @36
    _ZN5veins11BaseDecider14getSignalStateEPNS_8AirFrameE @37
    _ZN5veins11BaseDecider16processNewSignalEPNS_8AirFrameE @38
    _ZN5veins11BaseDecider16processSignalEndEPNS_8AirFrameE @39
    _ZN5veins11BaseDecider20processUnknownSignalEPNS_8AirFrameE @40
    _ZN5veins11BaseDecider20setChannelIdleStatusEb @41
    _ZN5veins11ChannelInfo11addAirFrameEPNS_8AirFrameERKN7omnetpp7SimTimeE @42
    _ZN5veins11ChannelInfo14addToInactivesEPNS_8AirFrameERKN7omnetpp7SimTimeES6_ @43
    _ZN5veins11ChannelInfo14deleteAirFrameERSt3mapIN7omnetpp7SimTimeENSt7__cxx114listISt4pairIS3_PNS_8AirFrameEESaIS9_EEESt4lessIS3_ESaIS6_IKS3_SB_EEES8_RSE_SJ_ @44
    _ZN5veins11ChannelInfo14removeAirFrameEPNS_8AirFrameE @45
    _ZN5veins11ChannelInfo18canDiscardIntervalERKN7omnetpp7SimTimeES4_ @46
    _ZN5veins11ChannelInfo21assertNoIntersectionsEv @47
    _ZN5veins11ChannelInfo21checkAndCleanIntervalERKN7omnetpp7SimTimeES4_ @48
    _ZN5veins11ChannelInfo21findEarliestInfoPointEv @49
    _ZN5veins11HasLogProxyC1EPN7omnetpp10cComponentE @50
    _ZN5veins11HasLogProxyC2EPN7omnetpp10cComponentE @51
    _ZN5veins11Mac80211Ack12parsimUnpackEPN7omnetpp11cCommBufferE @52
    _ZN5veins11Mac80211Ack12setMessageIdEm @53
    _ZN5veins11Mac80211Ack4copyERKS0_ @54
    _ZN5veins11Mac80211AckC1EPKcs @55
    _ZN5veins11Mac80211AckC1ERKS0_ @56
    _ZN5veins11Mac80211AckC2EPKcs @57
    _ZN5veins11Mac80211AckC2ERKS0_ @58
    _ZN5veins11Mac80211AckD0Ev @59
    _ZN5veins11Mac80211AckD1Ev @60
    _ZN5veins11Mac80211AckD2Ev @61
    _ZN5veins11Mac80211AckaSERKS0_ @62
    _ZN5veins11Mac80211Pkt11setAddress3Ei @63
    _ZN5veins11Mac80211Pkt11setAddress4Ei @64
    _ZN5veins11Mac80211Pkt11setDurationEN7omnetpp7SimTimeE @65
    _ZN5veins11Mac80211Pkt12parsimUnpackEPN7omnetpp11cCommBufferE @66
    _ZN5veins11Mac80211Pkt16setFragmentationEi @67
    _ZN5veins11Mac80211Pkt16setInformationDSEi @68
    _ZN5veins11Mac80211Pkt18setSequenceControlEi @69
    _ZN5veins11Mac80211Pkt4copyERKS0_ @70
    _ZN5veins11Mac80211Pkt8setRetryEb @71
    _ZN5veins11Mac80211PktC1EPKcs @72
    _ZN5veins11Mac80211PktC1ERKS0_ @73
    _ZN5veins11Mac80211PktC2EPKcs @74
    _ZN5veins11Mac80211PktC2ERKS0_ @75
    _ZN5veins11Mac80211PktD0Ev @76
    _ZN5veins11Mac80211PktD1Ev @77
    _ZN5veins11Mac80211PktD2Ev @78
    _ZN5veins11Mac80211PktaSERKS0_ @79
    _ZN5veins11SignalUtils10getMinSINREN7omnetpp7SimTimeES2_PNS_8AirFrameERNSt7__cxx114listIS4_SaIS4_EEEd @80
    _ZN5veins11SignalUtils28isChannelPowerBelowThresholdEN7omnetpp7SimTimeERNSt7__cxx114listIPNS_8AirFrameESaIS6_EEEydS6_ @81
    _ZN5veins11TraCIBuffer12timeAsDoubleE @82 DATA
    _ZN5veins11TraCIBuffer3setENSt7__cxx1112basic_stringIcSt11char_traitsIcESaIcEEE @83
    _ZN5veins11TraCIBuffer4readINSt7__cxx1112basic_stringIcSt11char_traitsIcESaIcEEEEET_v @84
    _ZN5veins11TraCIBuffer5clearEv @85
    _ZN5veins11TraCIBuffer5writeINSt7__cxx1112basic_stringIcSt11char_traitsIcESaIcEEEEEvT_ @86
    _ZN5veins11TraCIBuffer5writeINSt7__cxx114listINS2_12basic_stringIcSt11char_traitsIcESaIcEEESaIS8_EEEEEvT_ @87
    _ZN5veins11TraCIBufferC1ENSt7__cxx1112basic_stringIcSt11char_traitsIcESaIcEEE @88
    _ZN5veins11TraCIBufferC1Ev @89
    _ZN5veins11TraCIBufferC2ENSt7__cxx1112basic_stringIcSt11char_traitsIcESaIcEEE @90
    _ZN5veins11TraCIBufferC2Ev @91
    _ZN5veins11isBigEndianEv @92
    _ZN5veins12BaseMacLayer10initializeEi @93
    _ZN5veins12BaseMacLayer14handleLowerMsgEPN7omnetpp8cMessageE @94
    _ZN5veins12BaseMacLayer14handleUpperMsgEPN7omnetpp8cMessageE @95
    _ZN5veins12BaseMacLayer16setUpControlInfoEPN7omnetpp8cMessageERKl @96
    _ZN5veins12BaseMacLayer17registerInterfaceEv @97
    _ZN5veins12BaseMacLayer18handleLowerControlEPN7omnetpp8cMessageE @98
    _ZN5veins12BaseMacLayer20getConnectionManagerEv @99
    _ZN5veins12BaseMacLayer34getUpperDestinationFromControlInfoEPKN7omnetpp7cObjectE @100
    _ZN5veins12BaseMacLayer9decapsMsgEPNS_6MacPktE @101
    _ZN5veins12BaseMacLayer9encapsMsgEPN7omnetpp7cPacketE @102
    _ZN5veins12BaseMobility10goToBorderENS0_12BorderPolicyENS0_14BorderHandlingERNS_5CoordES4_ @103
    _ZN5veins12BaseMobility10initializeEi @104
    _ZN5veins12BaseMobility13handleMessageEPN7omnetpp8cMessageE @105
    _ZN5veins12BaseMobility13handleSelfMsgEPN7omnetpp8cMessageE @106
    _ZN5veins12BaseMobility13iconSizeToTagEd @107
    _ZN5veins12BaseMobility13wrapIfOutsideENS0_14BorderHandlingERNS_5CoordES3_ @108
    _ZN5veins12BaseMobility14checkIfOutsideENS_5CoordERS1_ @109
    _ZN5veins12BaseMobility14updatePositionEv @110
    _ZN5veins12BaseMobility15handleBorderMsgEPN7omnetpp8cMessageE @111
    _ZN5veins12BaseMobility15handleIfOutsideENS0_12BorderPolicyERNS_5CoordES3_S3_Rd @112
    _ZN5veins12BaseMobility16reflectIfOutsideENS0_14BorderHandlingERNS_5CoordES3_S3_Rd @113
    _ZN5veins12BaseMobility17iconSizeTagToSizeEPKc @114
    _ZN5veins12BaseMobility17reflectCoordinateENS0_14BorderHandlingERNS_5CoordE @115
    _ZN5veins12BaseMobility22placeRandomlyIfOutsideERNS_5CoordE @116
    _ZN5veins12BaseMobility26mobilityStateChangedSignalE @117 DATA
    _ZN5veins12BaseMobilityC1Ej @118
    _ZN5veins12BaseMobilityC1Ev @119
    _ZN5veins12BaseMobilityC2Ej @120
    _ZN5veins12BaseMobilityC2Ev @121
    _ZN5veins12BasePhyLayer10initializeEi @122
    _ZN5veins12BasePhyLayer12filterSignalEPNS_8AirFrameE @123
    _ZN5veins12BasePhyLayer12recordScalarEPKcdS2_ @124
    _ZN5veins12BasePhyLayer12sendMacPktUpEPN7omnetpp8cMessageE @125
    _ZN5veins12BasePhyLayer13getRadioStateEv @126
    _ZN5veins12BasePhyLayer13handleMessageEPN7omnetpp8cMessageE @127
    _ZN5veins12BasePhyLayer13setRadioStateEi @128
    _ZN5veins12BasePhyLayer14createAirFrameEPN7omnetpp7cPacketE @129
    _ZN5veins12BasePhyLayer14getChannelInfoERKN7omnetpp7SimTimeES4_RNSt7__cxx114listIPNS_8AirFrameESaIS8_EEE @130
    _ZN5veins12BasePhyLayer14handleAirFrameEPNS_8AirFrameE @131
    _ZN5veins12BasePhyLayer15getWorldUtilityEv @132
    _ZN5veins12BasePhyLayer15initializeRadioEv @133
    _ZN5veins12BasePhyLayer15sendMessageDownEPNS_8AirFrameE @134
    _ZN5veins12BasePhyLayer15sendSelfMessageEPN7omnetpp8cMessageERKNS1_7SimTimeE @135
    _ZN5veins12BasePhyLayer17handleSelfMessageEPN7omnetpp8cMessageE @136
    _ZN5veins12BasePhyLayer17initializeAntennaEPN7omnetpp11cXMLElementE @137
    _ZN5veins12BasePhyLayer17initializeDeciderEPN7omnetpp11cXMLElementE @138
    _ZN5veins12BasePhyLayer18getAntennaFromNameENSt7__cxx1112basic_stringIcSt11char_traitsIcESaIcEEERSt3mapIS6_N7omnetpp7cMsgParESt4lessIS6_ESaISt4pairIKS6_S9_EEE @139
    _ZN5veins12BasePhyLayer18getDeciderFromNameENSt7__cxx1112basic_stringIcSt11char_traitsIcESaIcEEERSt3mapIS6_N7omnetpp7cMsgParESt4lessIS6_ESaISt4pairIKS6_S9_EEE @140
    _ZN5veins12BasePhyLayer18getNbRadioChannelsEv @141
    _ZN5veins12BasePhyLayer18getNoiseFloorValueEv @142
    _ZN5veins12BasePhyLayer18handleUpperMessageEPN7omnetpp8cMessageE @143
    _ZN5veins12BasePhyLayer19sendControlMsgToMacEPN7omnetpp8cMessageE @144
    _ZN5veins12BasePhyLayer20finishRadioSwitchingEv @145
    _ZN5veins12BasePhyLayer20getParametersFromXMLEPN7omnetpp11cXMLElementERSt3mapINSt7__cxx1112basic_stringIcSt11char_traitsIcESaIcEEENS1_7cMsgParESt4lessISA_ESaISt4pairIKSA_SB_EEE @146
    _ZN5veins12BasePhyLayer20sendControlMessageUpEPN7omnetpp8cMessageE @147
    _ZN5veins12BasePhyLayer22getCurrentRadioChannelEv @148
    _ZN5veins12BasePhyLayer22setCurrentRadioChannelEi @149
    _ZN5veins12BasePhyLayer23handleAirFrameReceivingEPNS_8AirFrameE @150
    _ZN5veins12BasePhyLayer24handleAirFrameEndReceiveEPNS_8AirFrameE @151
    _ZN5veins12BasePhyLayer24initializeAnalogueModelsEPN7omnetpp11cXMLElementE @152
    _ZN5veins12BasePhyLayer25handleUpperControlMessageEPN7omnetpp8cMessageE @153
    _ZN5veins12BasePhyLayer26handleAirFrameStartReceiveEPNS_8AirFrameE @154
    _ZN5veins12BasePhyLayer26initializeSampledAntenna1DERSt3mapINSt7__cxx1112basic_stringIcSt11char_traitsIcESaIcEEEN7omnetpp7cMsgParESt4lessIS7_ESaISt4pairIKS7_S9_EEE @155
    _ZN5veins12BasePhyLayer6finishEv @156
    _ZN5veins12BasePhyLayer6sendUpEPNS_8AirFrameEPNS_13DeciderResultE @157
    _ZN5veins12BasePhyLayer9encapsMsgEPN7omnetpp7cPacketE @158
    _ZN5veins12BasePhyLayerD0Ev @159
    _ZN5veins12BasePhyLayerD1Ev @160
    _ZN5veins12BasePhyLayerD2Ev @161
    _ZN5veins12TimerManager13handleMessageEPN7omnetpp8cMessageE @162
    _ZN5veins12TimerManager6cancelEl @163
    _ZN5veins12TimerManager6createENS_18TimerSpecificationENSt7__cxx1112basic_stringIcSt11char_traitsIcESaIcEEE @164
    _ZN5veins12TimerManagerC1EPN7omnetpp13cSimpleModuleE @165
    _ZN5veins12TimerManagerC2EPN7omnetpp13cSimpleModuleE @166
    _ZN5veins12TimerManagerD1Ev @167
    _ZN5veins12TimerManagerD2Ev @168
    _ZN5veins12TraCIDemo11p10initializeEi @169
    _ZN5veins12TraCIDemo11p13handleSelfMsgEPN7omnetpp8cMessageE @170
    _ZN5veins12TraCIDemo11p20handlePositionUpdateEPN7omnetpp7cObjectE @171
    _ZN5veins12TraCIDemo11p5onWSAEPNS_23DemoServiceAdvertismentE @172
    _ZN5veins12TraCIDemo11p5onWSMEPNS_15BaseFrame1609_4E @173
    _ZN5veins13BaseApplLayer10initializeEi @174
    _ZN5veins13BaseApplLayer15sendDelayedDownEPN7omnetpp8cMessageERKNS1_7SimTimeE @175
    _ZN5veins13BatteryAccess10drawEnergyEdi @176
    _ZN5veins13BatteryAccess11drawCurrentEdi @177
    _ZN5veins13BatteryAccess19registerWithBatteryERKNSt7__cxx1112basic_stringIcSt11char_traitsIcESaIcEEEi @178
    _ZN5veins13BatteryAccess4drawERNS_10DrawAmountEi @179
    _ZN5veins13BatteryAccessC1Ej @180
    _ZN5veins13BatteryAccessC1Ev @181
    _ZN5veins13BatteryAccessC2Ej @182
    _ZN5veins13BatteryAccessC2Ev @183
    _ZN5veins13ChannelAccess10initializeEi @184
    _ZN5veins13ChannelAccess13receiveSignalEPN7omnetpp10cComponentEiPNS1_7cObjectES5_ @185
    _ZN5veins13ChannelAccess13sendToChannelEPN7omnetpp7cPacketE @186
    _ZN5veins13ChannelAccess20getConnectionManagerEPN7omnetpp7cModuleE @187
    _ZN5veins13ChannelAccess25calculatePropagationDelayEPKNS_8NicEntryE @188
    _ZN5veins13Decider80211p10switchToTxEv @189
    _ZN5veins13Decider80211p14getSignalStateEPNS_8AirFrameE @190
    _ZN5veins13Decider80211p15changeFrequencyEd @191
    _ZN5veins13Decider80211p15checkIfSignalOkEPNS_8AirFrameE @192
    _ZN5veins13Decider80211p15getCCAThresholdEv @193
    _ZN5veins13Decider80211p15setCCAThresholdEd @194
    _ZN5veins13Decider80211p16processNewSignalEPNS_8AirFrameE @195
    _ZN5veins13Decider80211p16processSignalEndEPNS_8AirFrameE @196
    _ZN5veins13Decider80211p16setNotifyRxStartEb @197
    _ZN5veins13Decider80211p20setChannelIdleStatusEb @198
    _ZN5veins13Decider80211p3ccaERKN7omnetpp7SimTimeEPNS_8AirFrameE @199
    _ZN5veins13Decider80211p6finishEv @200
    _ZN5veins13Decider80211p8packetOkEddid @201
    _ZN5veins13Decider80211pD0Ev @202
    _ZN5veins13Decider80211pD1Ev @203
    _ZN5veins13Decider80211pD2Ev @204
    _ZN5veins13NicEntryDebug12collectGatesEPKcRSt6vectorIPN7omnetpp5cGateESaIS6_EE @205
    _ZN5veins13NicEntryDebug13requestInGateEv @206
    _ZN5veins13NicEntryDebug14disconnectFromEPNS_8NicEntryE @207
    _ZN5veins13NicEntryDebug14requestOutGateEv @208
    _ZN5veins13NicEntryDebug16collectFreeGatesEv @209
    _ZN5veins13NicEntryDebug9connectToEPNS_8NicEntryE @210
    _ZN5veins13NistErrorRate10getBpskBerEd @211
    _ZN5veins13NistErrorRate10getQpskBerEd @212
    _ZN5veins13NistErrorRate11calculatePeEdj @213
    _ZN5veins13NistErrorRate11get16QamBerEd @214
    _ZN5veins13NistErrorRate11get64QamBerEd @215
    _ZN5veins13NistErrorRate13getFecBpskBerEdjj @216
    _ZN5veins13NistErrorRate13getFecQpskBerEdjj @217
    _ZN5veins13NistErrorRate14getFec16QamBerEdjj @218
    _ZN5veins13NistErrorRate14getFec64QamBerEdjj @219
    _ZN5veins13NistErrorRate19getChunkSuccessRateEjNS_9BandwidthEdj @220
    _ZN5veins13NistErrorRateC1Ev @221
    _ZN5veins13NistErrorRateC2Ev @222
    _ZN5veins13TraCILauncherC1ENSt7__cxx1112basic_stringIcSt11char_traitsIcESaIcEEE @223
    _ZN5veins13TraCILauncherC2ENSt7__cxx1112basic_stringIcSt11char_traitsIcESaIcEEE @224
    _ZN5veins13TraCILauncherD1Ev @225
    _ZN5veins13TraCILauncherD2Ev @226
    _ZN5veins13TraCIMobility10Statistics10initializeEv @227
    _ZN5veins13TraCIMobility10Statistics13recordScalarsERN7omnetpp13cSimpleModuleE @228
    _ZN5veins13TraCIMobility10Statistics5watchERN7omnetpp13cSimpleModuleE @229
    _ZN5veins13TraCIMobility10initializeEi @230
    _ZN5veins13TraCIMobility12nextPositionERKNS_5CoordENSt7__cxx1112basic_stringIcSt11char_traitsIcESaIcEEEdNS_7HeadingENS_10EnumBitsetINS_13VehicleSignalEEE @231
    _ZN5veins13TraCIMobility13handleSelfMsgEPN7omnetpp8cMessageE @232
    _ZN5veins13TraCIMobility13preInitializeENSt7__cxx1112basic_stringIcSt11char_traitsIcESaIcEEERKNS_5CoordES6_dNS_7HeadingE @233
    _ZN5veins13TraCIMobility14changePositionEv @234
    _ZN5veins13TraCIMobility15collisionSignalE @235 DATA
    _ZN5veins13TraCIMobility17collisionOccurredEb @236
    _ZN5veins13TraCIMobility18changeParkingStateEb @237
    _ZN5veins13TraCIMobility20fixIfHostGetsOutsideEv @238
    _ZN5veins13TraCIMobility25parkingStateChangedSignalE @239 DATA
    _ZN5veins13TraCIMobility6finishEv @240
    _ZN5veins14LinearMobility10initializeEi @241
    _ZN5veins14LinearMobility20fixIfHostGetsOutsideEv @242
    _ZN5veins14LinearMobility8makeMoveEv @243
    _ZN5veins14NakagamiFading12filterSignalEPNS_6SignalE @244
    _ZN5veins14NicEntryDirect14disconnectFromEPNS_8NicEntryE @245
    _ZN5veins14NicEntryDirect9connectToEPNS_8NicEntryE @246
    _ZN5veins14PhyLayer80211p10initializeEi @247
    _ZN5veins14PhyLayer80211p12attachSignalEPNS_8AirFrameEPN7omnetpp7cObjectE @248
    _ZN5veins14PhyLayer80211p13getRadioStateEv @249
    _ZN5veins14PhyLayer80211p13setRadioStateEi @250
    _ZN5veins14PhyLayer80211p14createAirFrameEPN7omnetpp7cPacketE @251
    _ZN5veins14PhyLayer80211p15getCCAThresholdEv @252
    _ZN5veins14PhyLayer80211p15setCCAThresholdEd @253
    _ZN5veins14PhyLayer80211p17handleSelfMessageEPN7omnetpp8cMessageE @254
    _ZN5veins14PhyLayer80211p18getDeciderFromNameENSt7__cxx1112basic_stringIcSt11char_traitsIcESaIcEEERSt3mapIS6_N7omnetpp7cMsgParESt4lessIS6_ESaISt4pairIKS6_S9_EEE @255
    _ZN5veins14PhyLayer80211p18initializePERModelERSt3mapINSt7__cxx1112basic_stringIcSt11char_traitsIcESaIcEEEN7omnetpp7cMsgParESt4lessIS7_ESaISt4pairIKS7_S9_EEE @256
    _ZN5veins14PhyLayer80211p21notifyMacAboutRxStartEb @257
    _ZN5veins14PhyLayer80211p22changeListeningChannelENS_7ChannelE @258
    _ZN5veins14PhyLayer80211p23initializeDecider80211pERSt3mapINSt7__cxx1112basic_stringIcSt11char_traitsIcESaIcEEEN7omnetpp7cMsgParESt4lessIS7_ESaISt4pairIKS7_S9_EEE @259
    _ZN5veins14PhyLayer80211p24getAnalogueModelFromNameENSt7__cxx1112basic_stringIcSt11char_traitsIcESaIcEEERSt3mapIS6_N7omnetpp7cMsgParESt4lessIS6_ESaISt4pairIKS6_S9_EEE @260
    _ZN5veins14PhyLayer80211p24initializeNakagamiFadingERSt3mapINSt7__cxx1112basic_stringIcSt11char_traitsIcESaIcEEEN7omnetpp7cMsgParESt4lessIS7_ESaISt4pairIKS7_S9_EEE @261
    _ZN5veins14PhyLayer80211p26requestChannelStatusIfIdleEv @262
    _ZN5veins14PhyLayer80211p29initializeSimplePathlossModelERSt3mapINSt7__cxx1112basic_stringIcSt11char_traitsIcESaIcEEEN7omnetpp7cMsgParESt4lessIS7_ESaISt4pairIKS7_S9_EEE @263
    _ZN5veins14PhyLayer80211p33initializeBreakpointPathlossModelERSt3mapINSt7__cxx1112basic_stringIcSt11char_traitsIcESaIcEEEN7omnetpp7cMsgParESt4lessIS7_ESaISt4pairIKS7_S9_EEE @264
    _ZN5veins14PhyLayer80211p33initializeSimpleObstacleShadowingERSt3mapINSt7__cxx1112basic_stringIcSt11char_traitsIcESaIcEEEN7omnetpp7cMsgParESt4lessIS7_ESaISt4pairIKS7_S9_EEE @265
    _ZN5veins14PhyLayer80211p33initializeTwoRayInterferenceModelERSt3mapINSt7__cxx1112basic_stringIcSt11char_traitsIcESaIcEEEN7omnetpp7cMsgParESt4lessIS7_ESaISt4pairIKS7_S9_EEE @266
    _ZN5veins14PhyLayer80211p34initializeVehicleObstacleShadowingERSt3mapINSt7__cxx1112basic_stringIcSt11char_traitsIcESaIcEEEN7omnetpp7cMsgParESt4lessIS7_ESaISt4pairIKS7_S9_EEE @267
    _ZN5veins15AnnotationDummyD0Ev @268
    _ZN5veins15AnnotationDummyD1Ev @269
    _ZN5veins15AnnotationDummyD2Ev @270
    _ZN5veins15BaseFrame1609_412parsimUnpackEPN7omnetpp11cCommBufferE @271
    _ZN5veins15BaseFrame1609_415setUserPriorityEi @272
    _ZN5veins15BaseFrame1609_416setChannelNumberEi @273
    _ZN5veins15BaseFrame1609_419setRecipientAddressERKl @274
    _ZN5veins15BaseFrame1609_44copyERKS0_ @275
    _ZN5veins15BaseFrame1609_47setPsidEi @276
    _ZN5veins15BaseFrame1609_4C1EPKcs @277
    _ZN5veins15BaseFrame1609_4C1ERKS0_ @278
    _ZN5veins15BaseFrame1609_4C2EPKcs @279
    _ZN5veins15BaseFrame1609_4C2ERKS0_ @280
    _ZN5veins15BaseFrame1609_4D0Ev @281
    _ZN5veins15BaseFrame1609_4D1Ev @282
    _ZN5veins15BaseFrame1609_4D2Ev @283
    _ZN5veins15BaseFrame1609_4aSERKS0_ @284
    _ZN5veins15ObstacleControl10addFromXmlEPN7omnetpp11cXMLElementE @285
    _ZN5veins15ObstacleControl10initializeEi @286
    _ZN5veins15ObstacleControl13handleMessageEPN7omnetpp8cMessageE @287
    _ZN5veins15ObstacleControl13handleSelfMsgEPN7omnetpp8cMessageE @288
    _ZN5veins15ObstacleControl15isTypeSupportedENSt7__cxx1112basic_stringIcSt11char_traitsIcESaIcEEE @289
    _ZN5veins15ObstacleControl19addFromTypeAndShapeENSt7__cxx1112basic_stringIcSt11char_traitsIcESaIcEEES6_St6vectorINS_5CoordESaIS8_EE @290
    _ZN5veins15ObstacleControl20getAttenuationPerCutENSt7__cxx1112basic_stringIcSt11char_traitsIcESaIcEEE @291
    _ZN5veins15ObstacleControl22getAttenuationPerMeterENSt7__cxx1112basic_stringIcSt11char_traitsIcESaIcEEE @292
    _ZN5veins15ObstacleControl3addENS_8ObstacleE @293
    _ZN5veins15ObstacleControl5eraseEPKNS_8ObstacleE @294
    _ZN5veins15ObstacleControl6finishEv @295
    _ZN5veins15ObstacleControlD0Ev @296
    _ZN5veins15ObstacleControlD1Ev @297
    _ZN5veins15ObstacleControlD2Ev @298
    _ZN5veins15TraCIConnection11sendMessageENSt7__cxx1112basic_stringIcSt11char_traitsIcESaIcEEE @299
    _ZN5veins15TraCIConnection12setNetboundsENS_10TraCICoordES1_i @300
    _ZN5veins15TraCIConnection14receiveMessageB5cxx11Ev @301
    _ZN5veins15TraCIConnection5queryEhRKNS_11TraCIBufferEPNS0_6ResultE @302
    _ZN5veins15TraCIConnection6ResultC1EbbNSt7__cxx1112basic_stringIcSt11char_traitsIcESaIcEEE @303
    _ZN5veins15TraCIConnection6ResultC1Ev @304
    _ZN5veins15TraCIConnection6ResultC2EbbNSt7__cxx1112basic_stringIcSt11char_traitsIcESaIcEEE @305
    _ZN5veins15TraCIConnection6ResultC2Ev @306
    _ZN5veins15TraCIConnection7connectEPN7omnetpp10cComponentEPKci @307
    _ZN5veins15TraCIConnectionC1EPN7omnetpp10cComponentEPv @308
    _ZN5veins15TraCIConnectionC2EPN7omnetpp10cComponentEPv @309
    _ZN5veins15TraCIConnectionD1Ev @310
    _ZN5veins15TraCIConnectionD2Ev @311
    _ZN5veins15TraCIDemoRSU11p5onWSAEPNS_23DemoServiceAdvertismentE @312
    _ZN5veins15TraCIDemoRSU11p5onWSMEPNS_15BaseFrame1609_4E @313
    _ZN5veins16BaseWorldUtility10initializeEi @314
    _ZN5veins16BaseWorldUtility17getRandomPositionEv @315
    _ZN5veins16BaseWorldUtility21initializeIfNecessaryEv @316
    _ZN5veins16BaseWorldUtilityC1Ev @317
    _ZN5veins16BaseWorldUtilityC2Ev @318
    _ZN5veins16SampledAntenna1D12getLastAngleEv @319
    _ZN5veins16SampledAntenna1D7getGainENS_5CoordES1_S1_ @320
    _ZN5veins16SampledAntenna1DC1ERSt6vectorIdSaIdEENSt7__cxx1112basic_stringIcSt11char_traitsIcESaIcEEES4_SA_S4_PN7omnetpp4cRNGE @321
    _ZN5veins16SampledAntenna1DC2ERSt6vectorIdSaIdEENSt7__cxx1112basic_stringIcSt11char_traitsIcESaIcEEES4_SA_S4_PN7omnetpp4cRNGE @322
    _ZN5veins16SampledAntenna1DD0Ev @323
    _ZN5veins16SampledAntenna1DD1Ev @324
    _ZN5veins16SampledAntenna1DD2Ev @325
    _ZN5veins17AckTimeOutMessage12parsimUnpackEPN7omnetpp11cCommBufferE @326
    _ZN5veins17AckTimeOutMessage4copyERKS0_ @327
    _ZN5veins17AckTimeOutMessage5setAcEi @328
    _ZN5veins17AckTimeOutMessage8setWsmIdEm @329
    _ZN5veins17AckTimeOutMessageC1EPKcs @330
    _ZN5veins17AckTimeOutMessageC1ERKS0_ @331
    _ZN5veins17AckTimeOutMessageC2EPKcs @332
    _ZN5veins17AckTimeOutMessageC2ERKS0_ @333
    _ZN5veins17AckTimeOutMessageD0Ev @334
    _ZN5veins17AckTimeOutMessageD1Ev @335
    _ZN5veins17AckTimeOutMessageD2Ev @336
    _ZN5veins17AckTimeOutMessageaSERKS0_ @337
    _ZN5veins17AnnotationManager10addFromXmlEPN7omnetpp11cXMLElementE @338
    _ZN5veins17AnnotationManager10drawBubbleENS_5CoordENSt7__cxx1112basic_stringIcSt11char_traitsIcESaIcEEE @339
    _ZN5veins17AnnotationManager10initializeEv @340
    _ZN5veins17AnnotationManager11createGroupENSt7__cxx1112basic_stringIcSt11char_traitsIcESaIcEEE @341
    _ZN5veins17AnnotationManager11drawPolygonENSt7__cxx114listINS_5CoordESaIS3_EEENS1_12basic_stringIcSt11char_traitsIcESaIcEEEPNS0_5GroupE @342
    _ZN5veins17AnnotationManager11drawPolygonESt6vectorINS_5CoordESaIS2_EENSt7__cxx1112basic_stringIcSt11char_traitsIcESaIcEEEPNS0_5GroupE @343
    _ZN5veins17AnnotationManager13handleMessageEPN7omnetpp8cMessageE @344
    _ZN5veins17AnnotationManager13handleSelfMsgEPN7omnetpp8cMessageE @345
    _ZN5veins17AnnotationManager13scheduleEraseEN7omnetpp7SimTimeEPNS0_10AnnotationE @346
    _ZN5veins17AnnotationManager21handleParameterChangeEPKc @347
    _ZN5veins17AnnotationManager4hideEPKNS0_10AnnotationE @348
    _ZN5veins17AnnotationManager4showEPKNS0_10AnnotationE @349
    _ZN5veins17AnnotationManager5eraseEPKNS0_10AnnotationE @350
    _ZN5veins17AnnotationManager6finishEv @351
    _ZN5veins17AnnotationManager7hideAllEPNS0_5GroupE @352
    _ZN5veins17AnnotationManager7showAllEPNS0_5GroupE @353
    _ZN5veins17AnnotationManager8drawLineENS_5CoordES1_NSt7__cxx1112basic_stringIcSt11char_traitsIcESaIcEEEPNS0_5GroupE @354
    _ZN5veins17AnnotationManager8eraseAllEPNS0_5GroupE @355
    _ZN5veins17AnnotationManager9drawPointENS_5CoordENSt7__cxx1112basic_stringIcSt11char_traitsIcESaIcEEES7_PNS0_5GroupE @356
    _ZN5veins17AnnotationManagerD0Ev @357
    _ZN5veins17AnnotationManagerD1Ev @358
    _ZN5veins17AnnotationManagerD2Ev @359
    _ZN5veins17ConnectionManager14calcInterfDistEv @360
    _ZN5veins17DemoBaseApplLayer10initializeEi @361
    _ZN5veins17DemoBaseApplLayer11populateWSMEPNS_15BaseFrame1609_4Eli @362
    _ZN5veins17DemoBaseApplLayer11stopServiceEv @363
    _ZN5veins17DemoBaseApplLayer12startServiceENS_7ChannelEiNSt7__cxx1112basic_stringIcSt11char_traitsIcESaIcEEE @364
    _ZN5veins17DemoBaseApplLayer13handleSelfMsgEPN7omnetpp8cMessageE @365
    _ZN5veins17DemoBaseApplLayer13receiveSignalEPN7omnetpp10cComponentEiPNS1_7cObjectES5_ @366
    _ZN5veins17DemoBaseApplLayer14handleLowerMsgEPN7omnetpp8cMessageE @367
    _ZN5veins17DemoBaseApplLayer15sendDelayedDownEPN7omnetpp8cMessageENS1_7SimTimeE @368
    _ZN5veins17DemoBaseApplLayer19checkAndTrackPacketEPN7omnetpp8cMessageE @369
    _ZN5veins17DemoBaseApplLayer19handleParkingUpdateEPN7omnetpp7cObjectE @370
    _ZN5veins17DemoBaseApplLayer20handlePositionUpdateEPN7omnetpp7cObjectE @371
    _ZN5veins17DemoBaseApplLayer30computeAsynchronousSendingTimeEN7omnetpp7SimTimeENS_11ChannelTypeE @372
    _ZN5veins17DemoBaseApplLayer6finishEv @373
    _ZN5veins17DemoBaseApplLayer8sendDownEPN7omnetpp8cMessageE @374
    _ZN5veins17DemoBaseApplLayerD0Ev @375
    _ZN5veins17DemoBaseApplLayerD1Ev @376
    _ZN5veins17DemoBaseApplLayerD2Ev @377
    _ZN5veins17DemoSafetyMessage12parsimUnpackEPN7omnetpp11cCommBufferE @378
    _ZN5veins17DemoSafetyMessage12setSenderPosERKNS_5CoordE @379
    _ZN5veins17DemoSafetyMessage14setSenderSpeedERKNS_5CoordE @380
    _ZN5veins17DemoSafetyMessage4copyERKS0_ @381
    _ZN5veins17DemoSafetyMessageC1EPKcs @382
    _ZN5veins17DemoSafetyMessageC1ERKS0_ @383
    _ZN5veins17DemoSafetyMessageC2EPKcs @384
    _ZN5veins17DemoSafetyMessageC2ERKS0_ @385
    _ZN5veins17DemoSafetyMessageD0Ev @386
    _ZN5veins17DemoSafetyMessageD1Ev @387
    _ZN5veins17DemoSafetyMessageD2Ev @388
    _ZN5veins17DemoSafetyMessageaSERKS0_ @389
    _ZN5veins17PhyControlMessage12parsimUnpackEPN7omnetpp11cCommBufferE @390
    _ZN5veins17PhyControlMessage13setTxPower_mWEd @391
    _ZN5veins17PhyControlMessage4copyERKS0_ @392
    _ZN5veins17PhyControlMessage6setMcsEi @393
    _ZN5veins17PhyControlMessageC1EPKcs @394
    _ZN5veins17PhyControlMessageC1ERKS0_ @395
    _ZN5veins17PhyControlMessageC2EPKcs @396
    _ZN5veins17PhyControlMessageC2ERKS0_ @397
    _ZN5veins17PhyControlMessageD0Ev @398
    _ZN5veins17PhyControlMessageD1Ev @399
    _ZN5veins17PhyControlMessageD2Ev @400
    _ZN5veins17PhyControlMessageaSERKS0_ @401
    _ZN5veins18RoadsOsgVisualizer10createLineERKNSt7__cxx114listINS_5CoordESaIS3_EEEN7omnetpp7cFigure5ColorEd @402
    _ZN5veins18RoadsOsgVisualizer10initializeEi @403
    _ZN5veins18RoadsOsgVisualizer13handleMessageEPN7omnetpp8cMessageE @404
    _ZN5veins18RoadsOsgVisualizer6finishEv @405
    _ZN5veins18TimerSpecification11absoluteEndEN7omnetpp7SimTimeE @406
    _ZN5veins18TimerSpecification11relativeEndEN7omnetpp7SimTimeE @407
    _ZN5veins18TimerSpecification11repetitionsEy @408
    _ZN5veins18TimerSpecification13absoluteStartEN7omnetpp7SimTimeE @409
    _ZN5veins18TimerSpecification13relativeStartEN7omnetpp7SimTimeE @410
    _ZN5veins18TimerSpecification4nextEv @411
    _ZN5veins18TimerSpecification7openEndEv @412
    _ZN5veins18TimerSpecification8finalizeEv @413
    _ZN5veins18TimerSpecification8intervalEN7omnetpp7SimTimeE @414
    _ZN5veins18TimerSpecification8intervalESt8functionIFN7omnetpp7SimTimeEvEE @415
    _ZN5veins18TimerSpecification9oneshotAtEN7omnetpp7SimTimeE @416
    _ZN5veins18TimerSpecification9oneshotInEN7omnetpp7SimTimeE @417
    _ZN5veins18TimerSpecificationC1ESt8functionIFvlEE @418
    _ZN5veins18TimerSpecificationC1ESt8functionIFvvEE @419
    _ZN5veins18TimerSpecificationC2ESt8functionIFvlEE @420
    _ZN5veins18TimerSpecificationC2ESt8functionIFvvEE @421
    _ZN5veins19SimplePathlossModel12filterSignalEPNS_6SignalE @422
    _ZN5veins19TraCIDemo11pMessage11setDemoDataEPKc @423
    _ZN5veins19TraCIDemo11pMessage12parsimUnpackEPN7omnetpp11cCommBufferE @424
    _ZN5veins19TraCIDemo11pMessage16setSenderAddressERKl @425
    _ZN5veins19TraCIDemo11pMessage4copyERKS0_ @426
    _ZN5veins19TraCIDemo11pMessage9setSerialEi @427
    _ZN5veins19TraCIDemo11pMessageC1EPKcs @428
    _ZN5veins19TraCIDemo11pMessageC1ERKS0_ @429
    _ZN5veins19TraCIDemo11pMessageC2EPKcs @430
    _ZN5veins19TraCIDemo11pMessageC2ERKS0_ @431
    _ZN5veins19TraCIDemo11pMessageD0Ev @432
    _ZN5veins19TraCIDemo11pMessageD1Ev @433
    _ZN5veins19TraCIDemo11pMessageD2Ev @434
    _ZN5veins19TraCIDemo11pMessageaSERKS0_ @435
    _ZN5veins19TraCIScreenRecorder10initializeEi @436
    _ZN5veins19TraCIScreenRecorder13handleMessageEPN7omnetpp8cMessageE @437
    _ZN5veins19TraCIScreenRecorder6finishEv @438
    _ZN5veins20NetwToMacControlInfo14setControlInfoEPN7omnetpp8cMessageERKl @439
    _ZN5veins20NetwToMacControlInfo22getDestFromControlInfoEPKN7omnetpp7cObjectE @440
    _ZN5veins20TraCIScenarioManager10init_traciEv @441
    _ZN5veins20TraCIScenarioManager10initializeEi @442
    _ZN5veins20TraCIScenarioManager13handleMessageEPN7omnetpp8cMessageE @443
    _ZN5veins20TraCIScenarioManager13handleSelfMsgEPN7omnetpp8cMessageE @444
    _ZN5veins20TraCIScenarioManager13parseMappingsENSt7__cxx1112basic_stringIcSt11char_traitsIcESaIcEEES6_b @445
    _ZN5veins20TraCIScenarioManager14lifecycleEventEN7omnetpp28SimulationLifecycleEventTypeEPNS1_7cObjectE @446
    _ZN5veins20TraCIScenarioManager15listenerRemovedEv @447
    _ZN5veins20TraCIScenarioManager16getManagedModuleENSt7__cxx1112basic_stringIcSt11char_traitsIcESaIcEEE @448
    _ZN5veins20TraCIScenarioManager16parseModuleTypesEv @449
    _ZN5veins20TraCIScenarioManager16preNetworkFinishEv @450
    _ZN5veins20TraCIScenarioManager18executeOneTimestepEv @451
    _ZN5veins20TraCIScenarioManager18isModuleUnequippedENSt7__cxx1112basic_stringIcSt11char_traitsIcESaIcEEE @452
    _ZN5veins20TraCIScenarioManager19deleteManagedModuleENSt7__cxx1112basic_stringIcSt11char_traitsIcESaIcEEE @453
    _ZN5veins20TraCIScenarioManager19preInitializeModuleEPN7omnetpp7cModuleERKNSt7__cxx1112basic_stringIcSt11char_traitsIcESaIcEEERKNS_5CoordESB_dNS_7HeadingENS_10EnumBitsetINS_13VehicleSignalEEE @454
    _ZN5veins20TraCIScenarioManager20updateModulePositionEPN7omnetpp7cModuleERKNS_5CoordERKNSt7__cxx1112basic_stringIcSt11char_traitsIcESaIcEEEdNS_7HeadingENS_10EnumBitsetINS_13VehicleSignalEEE @455
    _ZN5veins20TraCIScenarioManager22processSimSubscriptionENSt7__cxx1112basic_stringIcSt11char_traitsIcESaIcEEERNS_11TraCIBufferE @456
    _ZN5veins20TraCIScenarioManager22traciInitializedSignalE @457 DATA
    _ZN5veins20TraCIScenarioManager22traciModuleAddedSignalE @458 DATA
    _ZN5veins20TraCIScenarioManager22traciTimestepEndSignalE @459 DATA
    _ZN5veins20TraCIScenarioManager24processSubcriptionResultERNS_11TraCIBufferE @460
    _ZN5veins20TraCIScenarioManager24traciModulePreInitSignalE @461 DATA
    _ZN5veins20TraCIScenarioManager24traciModuleRemovedSignalE @462 DATA
    _ZN5veins20TraCIScenarioManager24traciTimestepBeginSignalE @463 DATA
    _ZN5veins20TraCIScenarioManager26processVehicleSubscriptionENSt7__cxx1112basic_stringIcSt11char_traitsIcESaIcEEERNS_11TraCIBufferE @464
    _ZN5veins20TraCIScenarioManager27subscribeToVehicleVariablesENSt7__cxx1112basic_stringIcSt11char_traitsIcESaIcEEE @465
    _ZN5veins20TraCIScenarioManager31processTrafficLightSubscriptionENSt7__cxx1112basic_stringIcSt11char_traitsIcESaIcEEERNS_11TraCIBufferE @466
    _ZN5veins20TraCIScenarioManager31unsubscribeFromVehicleVariablesENSt7__cxx1112basic_stringIcSt11char_traitsIcESaIcEEE @467
    _ZN5veins20TraCIScenarioManager32subscribeToTrafficLightVariablesENSt7__cxx1112basic_stringIcSt11char_traitsIcESaIcEEE @468
    _ZN5veins20TraCIScenarioManager36unsubscribeFromTrafficLightVariablesENSt7__cxx1112basic_stringIcSt11char_traitsIcESaIcEEE @469
    _ZN5veins20TraCIScenarioManager6finishEv @470
    _ZN5veins20TraCIScenarioManager9addModuleENSt7__cxx1112basic_stringIcSt11char_traitsIcESaIcEEES6_S6_S6_RKNS_5CoordES6_dNS_7HeadingENS_10EnumBitsetINS_13VehicleSignalEEEddd @471
    _ZN5veins20TraCIScenarioManagerC1Ev @472
    _ZN5veins20TraCIScenarioManagerC2Ev @473
    _ZN5veins20TraCIScenarioManagerD0Ev @474
    _ZN5veins20TraCIScenarioManagerD1Ev @475
    _ZN5veins20TraCIScenarioManagerD2Ev @476
    _ZN5veins20TraCIVehicleInserter10initializeEi @477
    _ZN5veins20TraCIVehicleInserter13handleMessageEPN7omnetpp8cMessageE @478
    _ZN5veins20TraCIVehicleInserter13receiveSignalEPN7omnetpp10cComponentEiPNS1_7cObjectES5_ @479
    _ZN5veins20TraCIVehicleInserter13receiveSignalEPN7omnetpp10cComponentEiRKNS1_7SimTimeEPNS1_7cObjectE @480
    _ZN5veins20TraCIVehicleInserter14insertVehiclesEv @481
    _ZN5veins20TraCIVehicleInserter16insertNewVehicleEv @482
    _ZN5veins20TraCIVehicleInserter6finishEPN7omnetpp10cComponentEi @483
    _ZN5veins20TraCIVehicleInserter6finishEv @484
    _ZN5veins20TraCIVehicleInserterC1Ev @485
    _ZN5veins20TraCIVehicleInserterC2Ev @486
    _ZN5veins20TraCIVehicleInserterD0Ev @487
    _ZN5veins20TraCIVehicleInserterD1Ev @488
    _ZN5veins20TraCIVehicleInserterD2Ev @489
    _ZN5veins21BaseConnectionManager10initializeEi @490
    _ZN5veins21BaseConnectionManager11registerNicEPN7omnetpp7cModuleEPNS_13ChannelAccessENS_5CoordENS_7HeadingE @491
    _ZN5veins21BaseConnectionManager11wrapIfTorusEii @492
    _ZN5veins21BaseConnectionManager12updateNicPosEiNS_5CoordENS_7HeadingE @493
    _ZN5veins21BaseConnectionManager13unregisterNicEPN7omnetpp7cModuleE @494
    _ZN5veins21BaseConnectionManager14getCellEntriesERNS0_9GridCoordE @495
    _ZN5veins21BaseConnectionManager14registerNicExtEi @496
    _ZN5veins21BaseConnectionManager17updateConnectionsEiNS_5CoordES1_ @497
    _ZN5veins21BaseConnectionManager20getCellForCoordinateERKNS_5CoordE @498
    _ZN5veins21BaseConnectionManager20updateNicConnectionsERSt3mapIiPNS_8NicEntryESt4lessIiESaISt4pairIKiS3_EEES3_ @499
    _ZN5veins21BaseConnectionManager22fillUnionWithNeighborsERNS0_8CoordSetENS0_9GridCoordE @500
    _ZN5veins21BaseConnectionManager9checkGridERNS0_9GridCoordES2_i @501
    _ZN5veins21BaseConnectionManager9isInRangeEPNS_8NicEntryES2_ @502
    _ZN5veins21BaseConnectionManagerD0Ev @503
    _ZN5veins21BaseConnectionManagerD1Ev @504
    _ZN5veins21BaseConnectionManagerD2Ev @505
    _ZN5veins21RoadsCanvasVisualizer10createLineERKNSt7__cxx114listINS_5CoordESaIS3_EEEN7omnetpp7cFigure5ColorEdb @506
    _ZN5veins21RoadsCanvasVisualizer10initializeEi @507
    _ZN5veins21RoadsCanvasVisualizer13handleMessageEPN7omnetpp8cMessageE @508
    _ZN5veins21RoadsCanvasVisualizer6finishEv @509
    _ZN5veins21TraCICommandInterface10addPolygonENSt7__cxx1112basic_stringIcSt11char_traitsIcESaIcEEES6_RKNS_10TraCIColorEbiRKNS1_4listINS_5CoordESaISB_EEE @510
    _ZN5veins21TraCICommandInterface10addVehicleENSt7__cxx1112basic_stringIcSt11char_traitsIcESaIcEEES6_S6_N7omnetpp7SimTimeEdda @511
    _ZN5veins21TraCICommandInterface10getLaneIdsB5cxx11Ev @512
    _ZN5veins21TraCICommandInterface10getRoadIdsB5cxx11Ev @513
    _ZN5veins21TraCICommandInterface10getVersionB5cxx11Ev @514
    _ZN5veins21TraCICommandInterface11getDistanceERKNS_5CoordES3_b @515
    _ZN5veins21TraCICommandInterface11getRouteIdsB5cxx11Ev @516
    _ZN5veins21TraCICommandInterface12Trafficlight10setProgramENSt7__cxx1112basic_stringIcSt11char_traitsIcESaIcEEE @517
    _ZN5veins21TraCICommandInterface12Trafficlight13setPhaseIndexEi @518
    _ZN5veins21TraCICommandInterface12Trafficlight16setPhaseDurationEN7omnetpp7SimTimeE @519
    _ZN5veins21TraCICommandInterface12Trafficlight20setProgramDefinitionENS_24TraCITrafficLightProgram5LogicEi @520
    _ZN5veins21TraCICommandInterface12Trafficlight8setStateENSt7__cxx1112basic_stringIcSt11char_traitsIcESaIcEEE @521
    _ZN5veins21TraCICommandInterface13genericGetIntEhNSt7__cxx1112basic_stringIcSt11char_traitsIcESaIcEEEhhPNS_15TraCIConnection6ResultE @522
    _ZN5veins21TraCICommandInterface13getGuiViewIdsB5cxx11Ev @523
    _ZN5veins21TraCICommandInterface13getPolygonIdsB5cxx11Ev @524
    _ZN5veins21TraCICommandInterface13getRoadMapPosB5cxx11ERKNS_5CoordE @525
    _ZN5veins21TraCICommandInterface13setApiVersionEj @526
    _ZN5veins21TraCICommandInterface14genericGetTimeEhNSt7__cxx1112basic_stringIcSt11char_traitsIcESaIcEEEhhPNS_15TraCIConnection6ResultE @527
    _ZN5veins21TraCICommandInterface14getJunctionIdsB5cxx11Ev @528
    _ZN5veins21TraCICommandInterface14versionConfigsE @529 DATA
    _ZN5veins21TraCICommandInterface15genericGetCoordEhNSt7__cxx1112basic_stringIcSt11char_traitsIcESaIcEEEhhPNS_15TraCIConnection6ResultE @530
    _ZN5veins21TraCICommandInterface16LaneAreaDetector24getLastStepVehicleNumberEv @531
    _ZN5veins21TraCICommandInterface16genericGetDoubleEhNSt7__cxx1112basic_stringIcSt11char_traitsIcESaIcEEEhhPNS_15TraCIConnection6ResultE @532
    _ZN5veins21TraCICommandInterface16genericGetStringEhNSt7__cxx1112basic_stringIcSt11char_traitsIcESaIcEEEhhPNS_15TraCIConnection6ResultE @533
    _ZN5veins21TraCICommandInterface16genericSetDoubleEhNSt7__cxx1112basic_stringIcSt11char_traitsIcESaIcEEEhd @534
    _ZN5veins21TraCICommandInterface17getVehicleTypeIdsB5cxx11Ev @535
    _ZN5veins21TraCICommandInterface18getTrafficlightIdsB5cxx11Ev @536
    _ZN5veins21TraCICommandInterface19genericGetCoordListEhNSt7__cxx1112basic_stringIcSt11char_traitsIcESaIcEEEhhPNS_15TraCIConnection6ResultE @537
    _ZN5veins21TraCICommandInterface20genericGetStringListEhNSt7__cxx1112basic_stringIcSt11char_traitsIcESaIcEEEhhPNS_15TraCIConnection6ResultE @538
    _ZN5veins21TraCICommandInterface21initNetworkBoundariesEi @539
    _ZN5veins21TraCICommandInterface21isIgnoringGuiCommandsEv @540
    _ZN5veins21TraCICommandInterface22genericGetUnsignedByteEhNSt7__cxx1112basic_stringIcSt11char_traitsIcESaIcEEEhhPNS_15TraCIConnection6ResultE @541
    _ZN5veins21TraCICommandInterface22getLaneAreaDetectorIdsB5cxx11Ev @542
    _ZN5veins21TraCICommandInterface22getVehicleTypeMaxSpeedENSt7__cxx1112basic_stringIcSt11char_traitsIcESaIcEEE @543
    _ZN5veins21TraCICommandInterface22setVehicleTypeMaxSpeedENSt7__cxx1112basic_stringIcSt11char_traitsIcESaIcEEEd @544
    _ZN5veins21TraCICommandInterface3Poi11getPositionEv @545
    _ZN5veins21TraCICommandInterface3Poi6removeEi @546
    _ZN5veins21TraCICommandInterface4Lane11getMaxSpeedEv @547
    _ZN5veins21TraCICommandInterface4Lane12getMeanSpeedEv @548
    _ZN5veins21TraCICommandInterface4Lane13setDisallowedENSt7__cxx114listINS2_12basic_stringIcSt11char_traitsIcESaIcEEESaIS8_EEE @549
    _ZN5veins21TraCICommandInterface4Lane8getShapeB5cxx11Ev @550
    _ZN5veins21TraCICommandInterface4Lane8getWidthEv @551
    _ZN5veins21TraCICommandInterface4Lane9getLengthEv @552
    _ZN5veins21TraCICommandInterface4Lane9getRoadIdB5cxx11Ev @553
    _ZN5veins21TraCICommandInterface4Road12getMeanSpeedEv @554
    _ZN5veins21TraCICommandInterface4Road20getCurrentTravelTimeEv @555
    _ZN5veins21TraCICommandInterface4Road7getNameB5cxx11Ev @556
    _ZN5veins21TraCICommandInterface5Route10getRoadIdsB5cxx11Ev @557
    _ZN5veins21TraCICommandInterface6addPoiENSt7__cxx1112basic_stringIcSt11char_traitsIcESaIcEEES6_RKNS_10TraCIColorEiRKNS_5CoordE @558
    _ZN5veins21TraCICommandInterface7GuiView11setBoundaryENS_5CoordES2_ @559
    _ZN5veins21TraCICommandInterface7GuiView12trackVehicleENSt7__cxx1112basic_stringIcSt11char_traitsIcESaIcEEE @560
    _ZN5veins21TraCICommandInterface7GuiView14takeScreenshotENSt7__cxx1112basic_stringIcSt11char_traitsIcESaIcEEEii @561
    _ZN5veins21TraCICommandInterface7GuiView7getZoomEv @562
    _ZN5veins21TraCICommandInterface7GuiView7setZoomEd @563
    _ZN5veins21TraCICommandInterface7GuiView9getSchemeB5cxx11Ev @564
    _ZN5veins21TraCICommandInterface7GuiView9setSchemeENSt7__cxx1112basic_stringIcSt11char_traitsIcESaIcEEE @565
    _ZN5veins21TraCICommandInterface7Polygon6removeEi @566
    _ZN5veins21TraCICommandInterface7Polygon8getShapeB5cxx11Ev @567
    _ZN5veins21TraCICommandInterface7Polygon8setShapeERKNSt7__cxx114listINS_5CoordESaIS4_EEE @568
    _ZN5veins21TraCICommandInterface7Polygon9getTypeIdB5cxx11Ev @569
    _ZN5veins21TraCICommandInterface7Vehicle10getNextTlsB5cxx11Ev @570
    _ZN5veins21TraCICommandInterface7Vehicle10getRouteIdB5cxx11Ev @571
    _ZN5veins21TraCICommandInterface7Vehicle10setParkingEv @572
    _ZN5veins21TraCICommandInterface7Vehicle11changeRouteENSt7__cxx1112basic_stringIcSt11char_traitsIcESaIcEEEN7omnetpp7SimTimeE @573
    _ZN5veins21TraCICommandInterface7Vehicle11getMaxSpeedEv @574
    _ZN5veins21TraCICommandInterface7Vehicle11setMaxSpeedEd @575
    _ZN5veins21TraCICommandInterface7Vehicle12getLaneIndexEv @576
    _ZN5veins21TraCICommandInterface7Vehicle12getParameterERKNSt7__cxx1112basic_stringIcSt11char_traitsIcESaIcEEERS7_ @577
    _ZN5veins21TraCICommandInterface7Vehicle12getParameterERKNSt7__cxx1112basic_stringIcSt11char_traitsIcESaIcEEERd @578
    _ZN5veins21TraCICommandInterface7Vehicle12getParameterERKNSt7__cxx1112basic_stringIcSt11char_traitsIcESaIcEEERi @579
    _ZN5veins21TraCICommandInterface7Vehicle12setParameterERKNSt7__cxx1112basic_stringIcSt11char_traitsIcESaIcEEES9_ @580
    _ZN5veins21TraCICommandInterface7Vehicle12setParameterERKNSt7__cxx1112basic_stringIcSt11char_traitsIcESaIcEEEd @581
    _ZN5veins21TraCICommandInterface7Vehicle12setParameterERKNSt7__cxx1112basic_stringIcSt11char_traitsIcESaIcEEEi @582
    _ZN5veins21TraCICommandInterface7Vehicle12setSpeedModeEi @583
    _ZN5veins21TraCICommandInterface7Vehicle15getAccelerationEv @584
    _ZN5veins21TraCICommandInterface7Vehicle15getLanePositionEv @585
    _ZN5veins21TraCICommandInterface7Vehicle17getPlannedRoadIdsB5cxx11Ev @586
    _ZN5veins21TraCICommandInterface7Vehicle18changeVehicleRouteERKNSt7__cxx114listINS2_12basic_stringIcSt11char_traitsIcESaIcEEESaIS8_EEE @587
    _ZN5veins21TraCICommandInterface7Vehicle20getDistanceTravelledEv @588
    _ZN5veins21TraCICommandInterface7Vehicle6stopAtENSt7__cxx1112basic_stringIcSt11char_traitsIcESaIcEEEdhdN7omnetpp7SimTimeE @589
    _ZN5veins21TraCICommandInterface7Vehicle8getAccelEv @590
    _ZN5veins21TraCICommandInterface7Vehicle8getAngleEv @591
    _ZN5veins21TraCICommandInterface7Vehicle8getColorEv @592
    _ZN5veins21TraCICommandInterface7Vehicle8getSpeedEv @593
    _ZN5veins21TraCICommandInterface7Vehicle8getVTypeB5cxx11Ev @594
    _ZN5veins21TraCICommandInterface7Vehicle8getWidthEv @595
    _ZN5veins21TraCICommandInterface7Vehicle8newRouteENSt7__cxx1112basic_stringIcSt11char_traitsIcESaIcEEE @596
    _ZN5veins21TraCICommandInterface7Vehicle8setColorERKNS_10TraCIColorE @597
    _ZN5veins21TraCICommandInterface7Vehicle8setSpeedEd @598
    _ZN5veins21TraCICommandInterface7Vehicle8slowDownEdN7omnetpp7SimTimeE @599
    _ZN5veins21TraCICommandInterface7Vehicle9getDeccelEv @600
    _ZN5veins21TraCICommandInterface7Vehicle9getHeightEv @601
    _ZN5veins21TraCICommandInterface7Vehicle9getLaneIdB5cxx11Ev @602
    _ZN5veins21TraCICommandInterface7Vehicle9getLeaderB5cxx11Ed @603
    _ZN5veins21TraCICommandInterface7Vehicle9getLengthEv @604
    _ZN5veins21TraCICommandInterface7Vehicle9getRoadIdB5cxx11Ev @605
    _ZN5veins21TraCICommandInterface7Vehicle9getTypeIdB5cxx11Ev @606
    _ZN5veins21TraCICommandInterface8Junction11getPositionEv @607
    _ZN5veins21TraCICommandInterface8Junction8getShapeB5cxx11Ev @608
    _ZN5veins21TraCICommandInterface8addRouteENSt7__cxx1112basic_stringIcSt11char_traitsIcESaIcEEERKNS1_4listIS6_SaIS6_EEE @609
    _ZN5veins21TraCICommandInterface9getLonLatERKNS_5CoordE @610
    _ZN5veins21TraCICommandInterface9getPoiIdsB5cxx11Ev @611
    _ZN5veins21TraCICommandInterfaceC1EPN7omnetpp10cComponentERNS_15TraCIConnectionEb @612
    _ZN5veins21TraCICommandInterfaceC2EPN7omnetpp10cComponentERNS_15TraCIConnectionEb @613
    _ZN5veins21TraCIRegionOfInterest13addRectanglesERKNSt7__cxx1112basic_stringIcSt11char_traitsIcESaIcEEE @614
    _ZN5veins21TraCIRegionOfInterest5clearEv @615
    _ZN5veins21TraCIRegionOfInterest8addRoadsERKNSt7__cxx1112basic_stringIcSt11char_traitsIcESaIcEEE @616
    _ZN5veins21TraCIRegionOfInterestC1Ev @617
    _ZN5veins21TraCIRegionOfInterestC2Ev @618
    _ZN5veins22VehicleObstacleControl10initializeEi @619
    _ZN5veins22VehicleObstacleControl13handleMessageEPN7omnetpp8cMessageE @620
    _ZN5veins22VehicleObstacleControl13handleSelfMsgEPN7omnetpp8cMessageE @621
    _ZN5veins22VehicleObstacleControl23getVehicleAttenuationDZERKSt6vectorISt4pairIddESaIS3_EENS_6SignalE @622
    _ZN5veins22VehicleObstacleControl27getVehicleAttenuationSingleEdddddNS_6SignalE @623
    _ZN5veins22VehicleObstacleControl3addENS_18MobileHostObstacleE @624
    _ZN5veins22VehicleObstacleControl5eraseEPKNS_18MobileHostObstacleE @625
    _ZN5veins22VehicleObstacleControl6finishEv @626
    _ZN5veins22VehicleObstacleControlD0Ev @627
    _ZN5veins22VehicleObstacleControlD1Ev @628
    _ZN5veins22VehicleObstacleControlD2Ev @629
    _ZN5veins23BreakpointPathlossModel12filterSignalEPNS_6SignalE @630
    _ZN5veins23DemoServiceAdvertisment12parsimUnpackEPN7omnetpp11cCommBufferE @631
    _ZN5veins23DemoServiceAdvertisment16setTargetChannelEi @632
    _ZN5veins23DemoServiceAdvertisment21setServiceDescriptionEPKc @633
    _ZN5veins23DemoServiceAdvertisment4copyERKS0_ @634
    _ZN5veins23DemoServiceAdvertismentC1EPKcs @635
    _ZN5veins23DemoServiceAdvertismentC1ERKS0_ @636
    _ZN5veins23DemoServiceAdvertismentC2EPKcs @637
    _ZN5veins23DemoServiceAdvertismentC2ERKS0_ @638
    _ZN5veins23DemoServiceAdvertismentD0Ev @639
    _ZN5veins23DemoServiceAdvertismentD1Ev @640
    _ZN5veins23DemoServiceAdvertismentD2Ev @641
    _ZN5veins23DemoServiceAdvertismentaSERKS0_ @642
    _ZN5veins23SimpleObstacleShadowing12filterSignalEPNS_6SignalE @643
    _ZN5veins23SimpleObstacleShadowingC1EPN7omnetpp10cComponentERNS_15ObstacleControlEbRKNS_5CoordE @644
    _ZN5veins23SimpleObstacleShadowingC2EPN7omnetpp10cComponentERNS_15ObstacleControlEbRKNS_5CoordE @645
    _ZN5veins23TwoRayInterferenceModel12filterSignalEPNS_6SignalE @646
    _ZN5veins24TraCITrafficLightMessage11setNewValueEPKc @647
    _ZN5veins24TraCITrafficLightMessage11setOldValueEPKc @648
    _ZN5veins24TraCITrafficLightMessage12parsimUnpackEPN7omnetpp11cCommBufferE @649
    _ZN5veins24TraCITrafficLightMessage15setChangeSourceEi @650
    _ZN5veins24TraCITrafficLightMessage19setChangedAttributeEi @651
    _ZN5veins24TraCITrafficLightMessage4copyERKS0_ @652
    _ZN5veins24TraCITrafficLightMessage7setTlIdEPKc @653
    _ZN5veins24TraCITrafficLightMessageC1EPKcs @654
    _ZN5veins24TraCITrafficLightMessageC1ERKS0_ @655
    _ZN5veins24TraCITrafficLightMessageC2EPKcs @656
    _ZN5veins24TraCITrafficLightMessageC2ERKS0_ @657
    _ZN5veins24TraCITrafficLightMessageD0Ev @658
    _ZN5veins24TraCITrafficLightMessageD1Ev @659
    _ZN5veins24TraCITrafficLightMessageD2Ev @660
    _ZN5veins24TraCITrafficLightMessageaSERKS0_ @661
    _ZN5veins24TraCITrafficLightProgram8addLogicERKNS0_5LogicE @662
    _ZN5veins24TraCITrafficLightProgramC1ENSt7__cxx1112basic_stringIcSt11char_traitsIcESaIcEEE @663
    _ZN5veins24TraCITrafficLightProgramC2ENSt7__cxx1112basic_stringIcSt11char_traitsIcESaIcEEE @664
    _ZN5veins24VehicleObstacleShadowing12filterSignalEPNS_6SignalE @665
    _ZN5veins24VehicleObstacleShadowingC1EPN7omnetpp10cComponentERNS_22VehicleObstacleControlEbRKNS_5CoordE @666
    _ZN5veins24VehicleObstacleShadowingC2EPN7omnetpp10cComponentERNS_22VehicleObstacleControlEbRKNS_5CoordE @667
    _ZN5veins26TraCIScenarioManagerForker10initializeEi @668
    _ZN5veins26TraCIScenarioManagerForker10killServerEv @669
    _ZN5veins26TraCIScenarioManagerForker11startServerEv @670
    _ZN5veins26TraCIScenarioManagerForker6finishEv @671
    _ZN5veins26TraCIScenarioManagerForkerC1Ev @672
    _ZN5veins26TraCIScenarioManagerForkerC2Ev @673
    _ZN5veins26TraCIScenarioManagerForkerD0Ev @674
    _ZN5veins26TraCIScenarioManagerForkerD1Ev @675
    _ZN5veins26TraCIScenarioManagerForkerD2Ev @676
    _ZN5veins26TraCITrafficLightInterface10initializeEv @677
    _ZN5veins26TraCITrafficLightInterface13handleMessageEPN7omnetpp8cMessageE @678
    _ZN5veins26TraCITrafficLightInterface13preInitializeERKNSt7__cxx1112basic_stringIcSt11char_traitsIcESaIcEEERKNS_5CoordERKN7omnetpp7SimTimeE @679
    _ZN5veins26TraCITrafficLightInterface13sendChangeMsgEiNSt7__cxx1112basic_stringIcSt11char_traitsIcESaIcEEES6_ @680
    _ZN5veins26TraCITrafficLightInterface13setNextSwitchERKN7omnetpp7SimTimeEb @681
    _ZN5veins26TraCITrafficLightInterface15setCurrentStateERKNSt7__cxx1112basic_stringIcSt11char_traitsIcESaIcEEEb @682
    _ZN5veins26TraCITrafficLightInterface18getControlledLinksB5cxx11Ev @683
    _ZN5veins26TraCITrafficLightInterface18setControlledLinksERKNSt7__cxx114listINS2_INS_21TraCITrafficLightLinkESaIS3_EEESaIS5_EEE @684
    _ZN5veins26TraCITrafficLightInterface19setCurrentLogicByIdERKNSt7__cxx1112basic_stringIcSt11char_traitsIcESaIcEEEb @685
    _ZN5veins26TraCITrafficLightInterface19setCurrentPhaseByNrEjb @686
    _ZN5veins26TraCITrafficLightInterface20setProgramDefinitionERKNS_24TraCITrafficLightProgramE @687
    _ZN5veins26TraCITrafficLightInterface20setRemainingDurationERKN7omnetpp7SimTimeEb @688
    _ZN5veins26TraCITrafficLightInterface26handleChangeCommandMessageEPN7omnetpp8cMessageE @689
    _ZN5veins26TraCITrafficLightInterfaceC1Ev @690
    _ZN5veins26TraCITrafficLightInterfaceC2Ev @691
    _ZN5veins26TraCITrafficLightInterfaceD0Ev @692
    _ZN5veins26TraCITrafficLightInterfaceD1Ev @693
    _ZN5veins26TraCITrafficLightInterfaceD2Ev @694
    _ZN5veins27TraCIScenarioManagerLaunchd10init_traciEv @695
    _ZN5veins27TraCIScenarioManagerLaunchd10initializeEi @696
    _ZN5veins27TraCIScenarioManagerLaunchd6finishEv @697
    _ZN5veins27TraCIScenarioManagerLaunchdD0Ev @698
    _ZN5veins27TraCIScenarioManagerLaunchdD1Ev @699
    _ZN5veins27TraCIScenarioManagerLaunchdD2Ev @700
    _ZN5veins28TraCITrafficLightSimpleLogic13handleApplMsgEPN7omnetpp8cMessageE @701
    _ZN5veins28TraCITrafficLightSimpleLogic13handleTlIfMsgEPNS_24TraCITrafficLightMessageE @702
    _ZN5veins28TraCITrafficLightSimpleLogic20handlePossibleSwitchEv @703
    _ZN5veins29TraCICoordinateTransformationC1ENS_10TraCICoordES1_f @704
    _ZN5veins29TraCICoordinateTransformationC2ENS_10TraCICoordES1_f @705
    _ZN5veins30TraCITrafficLightAbstractLogic10initializeEv @706
    _ZN5veins30TraCITrafficLightAbstractLogic13handleMessageEPN7omnetpp8cMessageE @707
    _ZN5veins30TraCITrafficLightAbstractLogic13handleSelfMsgEPN7omnetpp8cMessageE @708
    _ZN5veins30TraCITrafficLightAbstractLogicC1Ev @709
    _ZN5veins30TraCITrafficLightAbstractLogicC2Ev @710
    _ZN5veins30TraCITrafficLightAbstractLogicD0Ev @711
    _ZN5veins30TraCITrafficLightAbstractLogicD1Ev @712
    _ZN5veins30TraCITrafficLightAbstractLogicD2Ev @713
    _ZN5veins5Coord4ZEROE @714 DATA
    _ZN5veins5Radio13setSwitchTimeEiiRKN7omnetpp7SimTimeE @715
    _ZN5veins5Radio8switchToEiRKN7omnetpp7SimTimeE @716
    _ZN5veins5Radio9endSwitchERKN7omnetpp7SimTimeE @717
    _ZN5veins5RadioC1Eibiii @718
    _ZN5veins5RadioC2Eibiii @719
    _ZN5veins5RadioD0Ev @720
    _ZN5veins5RadioD1Ev @721
    _ZN5veins5RadioD2Ev @722
    _ZN5veins6MacPkt10setSrcAddrERKl @723
    _ZN5veins6MacPkt11setDestAddrERKl @724
    _ZN5veins6MacPkt12parsimUnpackEPN7omnetpp11cCommBufferE @725
    _ZN5veins6MacPkt13setSequenceIdEl @726
    _ZN5veins6MacPkt4copyERKS0_ @727
    _ZN5veins6MacPktC1EPKcs @728
    _ZN5veins6MacPktC1ERKS0_ @729
    _ZN5veins6MacPktC2EPKcs @730
    _ZN5veins6MacPktC2ERKS0_ @731
    _ZN5veins6MacPktD0Ev @732
    _ZN5veins6MacPktD1Ev @733
    _ZN5veins6MacPktD2Ev @734
    _ZN5veins6MacPktaSERKS0_ @735
    _ZN5veins6Signal10setDataEndEy @736
    _ZN5veins6Signal11atFrequencyEd @737
    _ZN5veins6Signal12setDataStartEy @738
    _ZN5veins6Signal12setSenderPoaERKNS_3POAE @739
    _ZN5veins6Signal13getDataValuesEv @740
    _ZN5veins6Signal14setReceiverPoaERKNS_3POAE @741
    _ZN5veins6Signal16setDataNumValuesEy @742
    _ZN5veins6Signal18applyAnalogueModelEt @743
    _ZN5veins6Signal19setPropagationDelayERKN7omnetpp7SimTimeE @744
    _ZN5veins6Signal20setAnalogueModelListEPSt6vectorISt10unique_ptrINS_13AnalogueModelESt14default_deleteIS3_EESaIS6_EE @745
    _ZN5veins6Signal22applyAllAnalogueModelsEv @746
    _ZN5veins6Signal23setCenterFrequencyIndexEy @747
    _ZN5veins6Signal24greaterAtCenterFrequencyEd @748
    _ZN5veins6Signal24smallerAtCenterFrequencyEd @749
    _ZN5veins6Signal2atEy @750
    _ZN5veins6Signal6dataAtEy @751
    _ZN5veins6Signal9getValuesEv @752
    _ZN5veins6Signal9setTimingEN7omnetpp7SimTimeES2_ @753
    _ZN5veins6SignalC1ENS_8SpectrumE @754
    _ZN5veins6SignalC1ENS_8SpectrumEN7omnetpp7SimTimeES3_ @755
    _ZN5veins6SignalC1ERKS0_ @756
    _ZN5veins6SignalC2ENS_8SpectrumE @757
    _ZN5veins6SignalC2ENS_8SpectrumEN7omnetpp7SimTimeES3_ @758
    _ZN5veins6SignalC2ERKS0_ @759
    _ZN5veins6SignalaSERKS0_ @760
    _ZN5veins6SignalaSEd @761
    _ZN5veins6SignaldVERKS0_ @762
    _ZN5veins6SignaldVEd @763
    _ZN5veins6SignalmIERKS0_ @764
    _ZN5veins6SignalmIEd @765
    _ZN5veins6SignalmLERKS0_ @766
    _ZN5veins6SignalmLEd @767
    _ZN5veins6SignalpLERKS0_ @768
    _ZN5veins6SignalpLEd @769
    _ZN5veins7Antenna7getGainENS_5CoordES1_S1_ @770
    _ZN5veins7Decider13processSignalEPNS_8AirFrameE @771
    _ZN5veins7DeciderC1EPN7omnetpp10cComponentEPNS_21DeciderToPhyInterfaceE @772
    _ZN5veins7DeciderC2EPN7omnetpp10cComponentEPNS_21DeciderToPhyInterfaceE @773
    _ZN5veins7Heading3nanE @774 DATA
    _ZN5veins8AirFrame10setChannelEi @775
    _ZN5veins8AirFrame11setDurationEN7omnetpp7SimTimeE @776
    _ZN5veins8AirFrame12parsimUnpackEPN7omnetpp11cCommBufferE @777
    _ZN5veins8AirFrame13setProtocolIdEi @778
    _ZN5veins8AirFrame4copyERKS0_ @779
    _ZN5veins8AirFrame5setIdEl @780
    _ZN5veins8AirFrame6setMcsEi @781
    _ZN5veins8AirFrame6setPoaERKNS_3POAE @782
    _ZN5veins8AirFrame7setTypeEi @783
    _ZN5veins8AirFrame8setStateEi @784
    _ZN5veins8AirFrame9setSignalERKNS_6SignalE @785
    _ZN5veins8AirFrameC1EPKcs @786
    _ZN5veins8AirFrameC1ERKS0_ @787
    _ZN5veins8AirFrameC2EPKcs @788
    _ZN5veins8AirFrameC2ERKS0_ @789
    _ZN5veins8AirFrameD0Ev @790
    _ZN5veins8AirFrameD1Ev @791
    _ZN5veins8AirFrameD2Ev @792
    _ZN5veins8AirFrameaSERKS0_ @793
    _ZN5veins8Obstacle8setShapeESt6vectorINS_5CoordESaIS2_EE @794
    _ZN5veins8ObstacleC1ENSt7__cxx1112basic_stringIcSt11char_traitsIcESaIcEEES6_dd @795
    _ZN5veins8ObstacleC2ENSt7__cxx1112basic_stringIcSt11char_traitsIcESaIcEEES6_dd @796
    _ZN5veins8PERModel12filterSignalEPNS_6SignalE @797
    _ZN5veins8SpectrumC1ESt6vectorIdSaIdEE @798
    _ZN5veins8SpectrumC2ESt6vectorIdSaIdEE @799
    _ZN5veins9BaseLayer10initializeEi @800
    _ZN5veins9BaseLayer12recordPacketENS_13PassedMessage11direction_tENS1_7gates_tEPKN7omnetpp8cMessageE @801
    _ZN5veins9BaseLayer13handleMessageEPN7omnetpp8cMessageE @802
    _ZN5veins9BaseLayer13sendControlUpEPN7omnetpp8cMessageE @803
    _ZN5veins9BaseLayer15catPacketSignalE @804 DATA
    _ZN5veins9BaseLayer15sendControlDownEPN7omnetpp8cMessageE @805
    _ZN5veins9BaseLayer18catPassedMsgSignalE @806 DATA
    _ZN5veins9BaseLayer22catDroppedPacketSignalE @807 DATA
    _ZN5veins9BaseLayer6finishEv @808
    _ZN5veins9BaseLayer6sendUpEPN7omnetpp8cMessageE @809
    _ZN5veins9BaseLayer8sendDownEPN7omnetpp8cMessageE @810
    _ZN5veins9BaseLayerD0Ev @811
    _ZN5veins9BaseLayerD1Ev @812
    _ZN5veins9BaseLayerD2Ev @813
    _ZN5veins9BorderMsg11setStartPosERKNS_5CoordE @814
    _ZN5veins9BorderMsg12parsimUnpackEPN7omnetpp11cCommBufferE @815
    _ZN5veins9BorderMsg12setDirectionERKNS_5CoordE @816
    _ZN5veins9BorderMsg4copyERKS0_ @817
    _ZN5veins9BorderMsg9setPolicyEi @818
    _ZN5veins9BorderMsgC1EPKcs @819
    _ZN5veins9BorderMsgC1ERKS0_ @820
    _ZN5veins9BorderMsgC2EPKcs @821
    _ZN5veins9BorderMsgC2ERKS0_ @822
    _ZN5veins9BorderMsgD0Ev @823
    _ZN5veins9BorderMsgD1Ev @824
    _ZN5veins9BorderMsgD2Ev @825
    _ZN5veins9BorderMsgaSERKS0_ @826
    _ZN5veins9Mac1609_410initializeEi @827
    _ZN5veins9Mac1609_410setTxPowerEd @828
    _ZN5veins9Mac1609_410sigSentAckE @829 DATA
    _ZN5veins9Mac1609_411channelBusyEv @830
    _ZN5veins9Mac1609_411channelIdleEb @831
    _ZN5veins9Mac1609_412sigCollisionE @832 DATA
    _ZN5veins9Mac1609_413handleSelfMsgEPN7omnetpp8cMessageE @833
    _ZN5veins9Mac1609_413handleUnicastElSt10unique_ptrINS_15BaseFrame1609_4ESt14default_deleteIS2_EE @834
    _ZN5veins9Mac1609_413sigSentPacketE @835 DATA
    _ZN5veins9Mac1609_414handleLowerMsgEPN7omnetpp8cMessageE @836
    _ZN5veins9Mac1609_414handleUpperMsgEPN7omnetpp8cMessageE @837
    _ZN5veins9Mac1609_414sigChannelBusyE @838 DATA
    _ZN5veins9Mac1609_415channelBusySelfEb @839
    _ZN5veins9Mac1609_415handleBroadcastEPNS_11Mac80211PktEPNS_18DeciderResult80211E @840
    _ZN5veins9Mac1609_415mapUserPriorityEi @841
    _ZN5veins9Mac1609_415setCCAThresholdEd @842
    _ZN5veins9Mac1609_416handleAckTimeOutEPNS_17AckTimeOutMessageE @843
    _ZN5veins9Mac1609_416handleRetransmitENS0_17t_access_categoryE @844
    _ZN5veins9Mac1609_416setActiveChannelENS_11ChannelTypeE @845
    _ZN5veins9Mac1609_417attachControlInfoEPNS_11Mac80211PktENS_7ChannelENS_3MCSEd @846
    _ZN5veins9Mac1609_418handleLowerControlEPN7omnetpp8cMessageE @847
    _ZN5veins9Mac1609_418handleUpperControlEPN7omnetpp8cMessageE @848
    _ZN5veins9Mac1609_418sigRetriesExceededE @849 DATA
    _ZN5veins9Mac1609_419isCurrentChannelCCHEv @850
    _ZN5veins9Mac1609_420changeServiceChannelENS_7ChannelE @851
    _ZN5veins9Mac1609_420getSwitchingIntervalEv @852
    _ZN5veins9Mac1609_423setParametersForBitrateEy @853
    _ZN5veins9Mac1609_424isChannelSwitchingActiveEv @854
    _ZN5veins9Mac1609_44EDCA11createQueueEiiiNS0_17t_access_categoryE @855
    _ZN5veins9Mac1609_44EDCA11queuePacketENS0_17t_access_categoryEPNS_15BaseFrame1609_4E @856
    _ZN5veins9Mac1609_44EDCA11revokeTxOPsEv @857
    _ZN5veins9Mac1609_44EDCA11stopContentEbb @858
    _ZN5veins9Mac1609_44EDCA12postTransmitENS0_17t_access_categoryEPNS_15BaseFrame1609_4Eb @859
    _ZN5veins9Mac1609_44EDCA12startContentEN7omnetpp7SimTimeEb @860
    _ZN5veins9Mac1609_44EDCA16initiateTransmitEN7omnetpp7SimTimeE @861
    _ZN5veins9Mac1609_44EDCA7backoffENS0_17t_access_categoryE @862
    _ZN5veins9Mac1609_44EDCA9EDCAQueueC1EiiiNS0_17t_access_categoryE @863
    _ZN5veins9Mac1609_44EDCA9EDCAQueueC2EiiiNS0_17t_access_categoryE @864
    _ZN5veins9Mac1609_44EDCA9EDCAQueueD1Ev @865
    _ZN5veins9Mac1609_44EDCA9EDCAQueueD2Ev @866
    _ZN5veins9Mac1609_44EDCAC1EPN7omnetpp13cSimpleModuleENS_11ChannelTypeEi @867
    _ZN5veins9Mac1609_44EDCAC2EPN7omnetpp13cSimpleModuleENS_11ChannelTypeEi @868
    _ZN5veins9Mac1609_44EDCAD1Ev @869
    _ZN5veins9Mac1609_44EDCAD2Ev @870
    _ZN5veins9Mac1609_46finishEv @871
    _ZN5veins9Mac1609_46setMCSENS_3MCSE @872
    _ZN5veins9Mac1609_47sendAckElm @873
    _ZN5veins9Mac1609_49handleAckEPKNS_11Mac80211AckE @874
    _ZN5veins9Mac1609_49sendFrameEPNS_11Mac80211PktEN7omnetpp7SimTimeENS_7ChannelENS_3MCSEd @875
    _ZN5veins9Mac1609_4D0Ev @876
    _ZN5veins9Mac1609_4D1Ev @877
    _ZN5veins9Mac1609_4D2Ev @878
    _ZN5veinsdvERKNS_6SignalES2_ @879
    _ZN5veinsdvERKNS_6SignalEd @880
    _ZN5veinsdvEdRKNS_6SignalE @881
    _ZN5veinseqERKNS_8SpectrumES2_ @882
    _ZN5veinslsERSoRKNS_8SpectrumE @883
    _ZN5veinsmiERKNS_6SignalES2_ @884
    _ZN5veinsmiERKNS_6SignalEd @885
    _ZN5veinsmiEdRKNS_6SignalE @886
    _ZN5veinsmlERKNS_6SignalES2_ @887
    _ZN5veinsmlERKNS_6SignalEd @888
    _ZN5veinsmlEdRKNS_6SignalE @889
    _ZN5veinsplERKNS_6SignalES2_ @890
    _ZN5veinsplERKNS_6SignalEd @891
    _ZN5veinsplEdRKNS_6SignalE @892
    _ZNK5veins10BBoxLookup15findOverlappingENS0_5PointES1_ @893
    _ZNK5veins10BaseModule7logNameB5cxx11Ev @894
    _ZNK5veins10BaseModule8findHostEv @895
    _ZNK5veins11AirFrame11p10parsimPackEPN7omnetpp11cCommBufferE @896
    _ZNK5veins11AirFrame11p18getWasTransmittingEv @897
    _ZNK5veins11AirFrame11p21getUnderMinPowerLevelEv @898
    _ZNK5veins11ChannelInfo12getAirFramesERKN7omnetpp7SimTimeES4_RNSt7__cxx114listIPNS_8AirFrameESaIS8_EEE @899
    _ZNK5veins11ChannelInfo14isIntersectingERKSt3mapIN7omnetpp7SimTimeENSt7__cxx114listISt4pairIS3_PNS_8AirFrameEESaIS9_EEESt4lessIS3_ESaIS6_IKS3_SB_EEERSE_SK_ @900
    _ZNK5veins11ChannelInfo16getIntersectionsERKSt3mapIN7omnetpp7SimTimeENSt7__cxx114listISt4pairIS3_PNS_8AirFrameEESaIS9_EEESt4lessIS3_ESaIS6_IKS3_SB_EEERSE_SK_RNS5_IS8_SaIS8_EEE @901
    _ZNK5veins11HasLogProxy10getThisPtrEv @902
    _ZNK5veins11Mac80211Ack10parsimPackEPN7omnetpp11cCommBufferE @903
    _ZNK5veins11Mac80211Ack12getMessageIdEv @904
    _ZNK5veins11Mac80211Pkt10parsimPackEPN7omnetpp11cCommBufferE @905
    _ZNK5veins11Mac80211Pkt11getAddress3Ev @906
    _ZNK5veins11Mac80211Pkt11getAddress4Ev @907
    _ZNK5veins11Mac80211Pkt11getDurationEv @908
    _ZNK5veins11Mac80211Pkt16getFragmentationEv @909
    _ZNK5veins11Mac80211Pkt16getInformationDSEv @910
    _ZNK5veins11Mac80211Pkt18getSequenceControlEv @911
    _ZNK5veins11Mac80211Pkt8getRetryEv @912
    _ZNK5veins11TraCIBuffer3eofEv @913
    _ZNK5veins11TraCIBuffer3strB5cxx11Ev @914
    _ZNK5veins11TraCIBuffer6hexStrB5cxx11Ev @915
    _ZNK5veins13DeciderResult15isSignalCorrectEv @916
    _ZNK5veins13TraCIMobility20calculateCO2emissionEdd @917
    _ZNK5veins13TraCIMobility21calculateHostPositionERKNS_5CoordE @918
    _ZNK5veins14PhyLayer80211p16getFrameDurationEiNS_3MCSE @919
    _ZNK5veins15BaseFrame1609_410parsimPackEPN7omnetpp11cCommBufferE @920
    _ZNK5veins15BaseFrame1609_415getUserPriorityEv @921
    _ZNK5veins15BaseFrame1609_416getChannelNumberEv @922
    _ZNK5veins15BaseFrame1609_419getRecipientAddressEv @923
    _ZNK5veins15BaseFrame1609_47getPsidEv @924
    _ZNK5veins15ObstacleControl16getIntersectionsERKNS_5CoordES3_ @925
    _ZNK5veins15ObstacleControl20calculateAttenuationERKNS_5CoordES3_ @926
    _ZNK5veins15TraCIConnection11omnet2traciENS_5CoordE @927
    _ZNK5veins15TraCIConnection11omnet2traciERKNSt7__cxx114listINS_5CoordESaIS3_EEE @928
    _ZNK5veins15TraCIConnection11traci2omnetENS_10TraCICoordE @929
    _ZNK5veins15TraCIConnection11traci2omnetERKNSt7__cxx114listINS_10TraCICoordESaIS3_EEE @930
    _ZNK5veins15TraCIConnection18omnet2traciHeadingENS_7HeadingE @931
    _ZNK5veins15TraCIConnection18traci2omnetHeadingEd @932
    _ZNK5veins17AckTimeOutMessage10parsimPackEPN7omnetpp11cCommBufferE @933
    _ZNK5veins17AckTimeOutMessage5getAcEv @934
    _ZNK5veins17AckTimeOutMessage8getWsmIdEv @935
    _ZNK5veins17DemoSafetyMessage10parsimPackEPN7omnetpp11cCommBufferE @936
    _ZNK5veins17DemoSafetyMessage12getSenderPosEv @937
    _ZNK5veins17DemoSafetyMessage14getSenderSpeedEv @938
    _ZNK5veins17PhyControlMessage10parsimPackEPN7omnetpp11cCommBufferE @939
    _ZNK5veins17PhyControlMessage13getTxPower_mWEv @940
    _ZNK5veins17PhyControlMessage6getMcsEv @941
    _ZNK5veins18MobileHostObstacle13maybeInBoundsEddddN7omnetpp7SimTimeE @942
    _ZNK5veins18MobileHostObstacle20getIntersectionPointERKNS_5CoordES3_N7omnetpp7SimTimeE @943
    _ZNK5veins18MobileHostObstacle8getShapeEN7omnetpp7SimTimeE @944
    _ZNK5veins18TimerSpecification14validOccurenceEN7omnetpp7SimTimeE @945
    _ZNK5veins19TraCIDemo11pMessage10parsimPackEPN7omnetpp11cCommBufferE @946
    _ZNK5veins19TraCIDemo11pMessage11getDemoDataEv @947
    _ZNK5veins19TraCIDemo11pMessage16getSenderAddressEv @948
    _ZNK5veins19TraCIDemo11pMessage9getSerialEv @949
    _ZNK5veins20TraCIScenarioManager13getPortNumberEv @950
    _ZNK5veins20TraCIVehicleInserter13numInitStagesEv @951
    _ZNK5veins21BaseConnectionManager11getGateListEi @952
    _ZNK5veins21BaseConnectionManager12getOutGateToEPKNS_8NicEntryES3_ @953
    _ZNK5veins21TraCICommandInterface12Trafficlight15getCurrentStateB5cxx11Ev @954
    _ZNK5veins21TraCICommandInterface12Trafficlight18getControlledLanesB5cxx11Ev @955
    _ZNK5veins21TraCICommandInterface12Trafficlight18getControlledLinksB5cxx11Ev @956
    _ZNK5veins21TraCICommandInterface12Trafficlight19getCurrentProgramIDB5cxx11Ev @957
    _ZNK5veins21TraCICommandInterface12Trafficlight20getCurrentPhaseIndexEv @958
    _ZNK5veins21TraCICommandInterface12Trafficlight20getProgramDefinitionEv @959
    _ZNK5veins21TraCICommandInterface12Trafficlight24getAssumedNextSwitchTimeEv @960
    _ZNK5veins21TraCICommandInterface12Trafficlight30getDefaultCurrentPhaseDurationEv @961
    _ZNK5veins21TraCICommandInterface7Vehicle12changeTargetERKNSt7__cxx1112basic_stringIcSt11char_traitsIcESaIcEEE @962
    _ZNK5veins21TraCICommandInterface7Vehicle12getStopStateEv @963
    _ZNK5veins21TraCICommandInterface7Vehicle13isStopReachedEv @964
    _ZNK5veins21TraCICommandInterface7Vehicle14getCOEmissionsEv @965
    _ZNK5veins21TraCICommandInterface7Vehicle14getHCEmissionsEv @966
    _ZNK5veins21TraCICommandInterface7Vehicle14getWaitingTimeEv @967
    _ZNK5veins21TraCICommandInterface7Vehicle15getCO2EmissionsEv @968
    _ZNK5veins21TraCICommandInterface7Vehicle15getNOxEmissionsEv @969
    _ZNK5veins21TraCICommandInterface7Vehicle15getPMxEmissionsEv @970
    _ZNK5veins21TraCICommandInterface7Vehicle16getNoiseEmissionEv @971
    _ZNK5veins21TraCICommandInterface7Vehicle18getFuelConsumptionEv @972
    _ZNK5veins21TraCICommandInterface7Vehicle25getAccumulatedWaitingTimeEv @973
    _ZNK5veins21TraCICommandInterface7Vehicle25getElectricityConsumptionEv @974
    _ZNK5veins21TraCIRegionOfInterest11partOfRoadsERKNSt7__cxx1112basic_stringIcSt11char_traitsIcESaIcEEE @975
    _ZNK5veins21TraCIRegionOfInterest13getRectanglesB5cxx11Ev @976
    _ZNK5veins21TraCIRegionOfInterest14hasConstraintsEv @977
    _ZNK5veins21TraCIRegionOfInterest14onAnyRectangleERKNS_10TraCICoordE @978
    _ZNK5veins22VehicleObstacleControl20drawVehicleObstaclesERKN7omnetpp7SimTimeE @979
    _ZNK5veins22VehicleObstacleControl21getPotentialObstaclesERKNS_15AntennaPositionES3_RKNS_6SignalE @980
    _ZNK5veins23DemoServiceAdvertisment10parsimPackEPN7omnetpp11cCommBufferE @981
    _ZNK5veins23DemoServiceAdvertisment16getTargetChannelEv @982
    _ZNK5veins23DemoServiceAdvertisment21getServiceDescriptionEv @983
    _ZNK5veins24TraCITrafficLightMessage10parsimPackEPN7omnetpp11cCommBufferE @984
    _ZNK5veins24TraCITrafficLightMessage11getNewValueEv @985
    _ZNK5veins24TraCITrafficLightMessage11getOldValueEv @986
    _ZNK5veins24TraCITrafficLightMessage15getChangeSourceEv @987
    _ZNK5veins24TraCITrafficLightMessage19getChangedAttributeEv @988
    _ZNK5veins24TraCITrafficLightMessage7getTlIdEv @989
    _ZNK5veins24TraCITrafficLightProgram8getLogicERKNSt7__cxx1112basic_stringIcSt11char_traitsIcESaIcEEE @990
    _ZNK5veins24TraCITrafficLightProgram8hasLogicERKNSt7__cxx1112basic_stringIcSt11char_traitsIcESaIcEEE @991
    _ZNK5veins26TraCIScenarioManagerForker13getPortNumberEv @992
    _ZNK5veins26TraCITrafficLightInterface11getPositionEv @993
    _ZNK5veins26TraCITrafficLightInterface15getCurrentLogicEv @994
    _ZNK5veins26TraCITrafficLightInterface15getCurrentPhaseEv @995
    _ZNK5veins26TraCITrafficLightInterface15getCurrentStateB5cxx11Ev @996
    _ZNK5veins26TraCITrafficLightInterface17getCurrentLogicIdB5cxx11Ev @997
    _ZNK5veins26TraCITrafficLightInterface17getCurrentPhaseIdEv @998
    _ZNK5veins26TraCITrafficLightInterface20getAssumedNextSwitchEv @999
    _ZNK5veins26TraCITrafficLightInterface20getRemainingDurationEv @1000
    _ZNK5veins26TraCITrafficLightInterface21isInOnlineSignalStateEv @1001
    _ZNK5veins29TraCICoordinateTransformation11omnet2traciERKNS_5CoordE @1002
    _ZNK5veins29TraCICoordinateTransformation11omnet2traciERKNSt7__cxx114listINS_5CoordESaIS3_EEE @1003
    _ZNK5veins29TraCICoordinateTransformation11traci2omnetERKNS_10TraCICoordE @1004
    _ZNK5veins29TraCICoordinateTransformation11traci2omnetERKNSt7__cxx114listINS_10TraCICoordESaIS3_EEE @1005
    _ZNK5veins29TraCICoordinateTransformation18omnet2traciHeadingENS_7HeadingE @1006
    _ZNK5veins29TraCICoordinateTransformation18traci2omnetHeadingEd @1007
    _ZNK5veins5Coord12sqrTorusDistERKS0_S2_ @1008
    _ZNK5veins5Coord4infoB5cxx11Ev @1009
    _ZNK5veins6MacPkt10getSrcAddrEv @1010
    _ZNK5veins6MacPkt10parsimPackEPN7omnetpp11cCommBufferE @1011
    _ZNK5veins6MacPkt11getDestAddrEv @1012
    _ZNK5veins6MacPkt13getSequenceIdEv @1013
    _ZNK5veins6Signal10getDataEndEv @1014
    _ZNK5veins6Signal10getDataMaxEv @1015
    _ZNK5veins6Signal10getDataMinEv @1016
    _ZNK5veins6Signal11atFrequencyEd @1017
    _ZNK5veins6Signal11getDurationEv @1018
    _ZNK5veins6Signal11getSpectrumEv @1019
    _ZNK5veins6Signal12getDataStartEv @1020
    _ZNK5veins6Signal12getNumValuesEv @1021
    _ZNK5veins6Signal12getSenderPoaEv @1022
    _ZNK5veins6Signal13getDataOffsetEv @1023
    _ZNK5veins6Signal13getMaxInRangeEyy @1024
    _ZNK5veins6Signal13getMinInRangeEyy @1025
    _ZNK5veins6Signal13getSendingEndEv @1026
    _ZNK5veins6Signal14getReceiverPoaEv @1027
    _ZNK5veins6Signal15getReceptionEndEv @1028
    _ZNK5veins6Signal15getSendingStartEv @1029
    _ZNK5veins6Signal16getNumDataValuesEv @1030
    _ZNK5veins6Signal17getReceptionStartEv @1031
    _ZNK5veins6Signal19getPropagationDelayEv @1032
    _ZNK5veins6Signal20getAnalogueModelListEv @1033
    _ZNK5veins6Signal20getAtCenterFrequencyEv @1034
    _ZNK5veins6Signal23getCenterFrequencyIndexEv @1035
    _ZNK5veins6Signal27getNumAnalogueModelsAppliedEv @1036
    _ZNK5veins6Signal2atEy @1037
    _ZNK5veins6Signal6dataAtEy @1038
    _ZNK5veins6Signal6getMaxEv @1039
    _ZNK5veins6Signal9hasTimingEv @1040
    _ZNK5veins8AirFrame10getChannelEv @1041
    _ZNK5veins8AirFrame10parsimPackEPN7omnetpp11cCommBufferE @1042
    _ZNK5veins8AirFrame11getConstPoaEv @1043
    _ZNK5veins8AirFrame11getDurationEv @1044
    _ZNK5veins8AirFrame13getProtocolIdEv @1045
    _ZNK5veins8AirFrame14getConstSignalEv @1046
    _ZNK5veins8AirFrame5getIdEv @1047
    _ZNK5veins8AirFrame6getMcsEv @1048
    _ZNK5veins8AirFrame7getTypeEv @1049
    _ZNK5veins8AirFrame8getStateEv @1050
    _ZNK5veins8Obstacle13containsPointENS_5CoordE @1051
    _ZNK5veins8Obstacle16getIntersectionsERKNS_5CoordES3_ @1052
    _ZNK5veins8Obstacle20getAttenuationPerCutEv @1053
    _ZNK5veins8Obstacle22getAttenuationPerMeterEv @1054
    _ZNK5veins8Obstacle5getIdB5cxx11Ev @1055
    _ZNK5veins8Obstacle7getTypeB5cxx11Ev @1056
    _ZNK5veins8Obstacle8getShapeEv @1057
    _ZNK5veins8Obstacle9getBboxP1Ev @1058
    _ZNK5veins8Obstacle9getBboxP2Ev @1059
    _ZNK5veins8Spectrum11getNumFreqsEv @1060
    _ZNK5veins8Spectrum6freqAtEy @1061
    _ZNK5veins8Spectrum7indexOfEd @1062
    _ZNK5veins8SpectrumixEy @1063
    _ZNK5veins9BorderMsg10parsimPackEPN7omnetpp11cCommBufferE @1064
    _ZNK5veins9BorderMsg11getStartPosEv @1065
    _ZNK5veins9BorderMsg12getDirectionEv @1066
    _ZNK5veins9BorderMsg9getPolicyEv @1067
    _ZNK5veins9Mac1609_411guardActiveEv @1068
    _ZNK5veins9Mac1609_414timeLeftInSlotEv @1069
    _ZNK5veins9Mac1609_421timeLeftTillGuardOverEv @1070
    _ZTIN5veins10BaseModuleE @1071 DATA
    _ZTIN5veins10DrawAmountE @1072 DATA
    _ZTIN5veins10MyVeinsAppE @1073 DATA
    _ZTIN5veins11AirFrame11pE @1074 DATA
    _ZTIN5veins11BaseBatteryE @1075 DATA
    _ZTIN5veins11BaseDeciderE @1076 DATA
    _ZTIN5veins11ChannelInfoE @1077 DATA
    _ZTIN5veins11Mac80211AckE @1078 DATA
    _ZTIN5veins11Mac80211PktE @1079 DATA
    _ZTIN5veins12BaseMacLayerE @1080 DATA
    _ZTIN5veins12BaseMobilityE @1081 DATA
    _ZTIN5veins12BasePhyLayerE @1082 DATA
    _ZTIN5veins12TraCIDemo11pE @1083 DATA
    _ZTIN5veins13AnalogueModelE @1084 DATA
    _ZTIN5veins13BaseApplLayerE @1085 DATA
    _ZTIN5veins13BatteryAccessE @1086 DATA
    _ZTIN5veins13ChannelAccessE @1087 DATA
    _ZTIN5veins13Decider80211pE @1088 DATA
    _ZTIN5veins13DeciderResultE @1089 DATA
    _ZTIN5veins13NicEntryDebugE @1090 DATA
    _ZTIN5veins13PassedMessageE @1091 DATA
    _ZTIN5veins13TraCIMobilityE @1092 DATA
    _ZTIN5veins14LinearMobilityE @1093 DATA
    _ZTIN5veins14NakagamiFadingE @1094 DATA
    _ZTIN5veins14NicEntryDirectE @1095 DATA
    _ZTIN5veins14PhyLayer80211pE @1096 DATA
    _ZTIN5veins15AnnotationDummyE @1097 DATA
    _ZTIN5veins15BaseFrame1609_4E @1098 DATA
    _ZTIN5veins15ObstacleControlE @1099 DATA
    _ZTIN5veins15TraCIDemoRSU11pE @1100 DATA
    _ZTIN5veins16BaseWorldUtilityE @1101 DATA
    _ZTIN5veins16SampledAntenna1DE @1102 DATA
    _ZTIN5veins17AckTimeOutMessageE @1103 DATA
    _ZTIN5veins17AnnotationManager10AnnotationE @1104 DATA
    _ZTIN5veins17AnnotationManager4LineE @1105 DATA
    _ZTIN5veins17AnnotationManager5GroupE @1106 DATA
    _ZTIN5veins17AnnotationManager5PointE @1107 DATA
    _ZTIN5veins17AnnotationManager7PolygonE @1108 DATA
    _ZTIN5veins17AnnotationManagerE @1109 DATA
    _ZTIN5veins17ConnectionManagerE @1110 DATA
    _ZTIN5veins17DemoBaseApplLayerE @1111 DATA
    _ZTIN5veins17DemoSafetyMessageE @1112 DATA
    _ZTIN5veins17MacToPhyInterfaceE @1113 DATA
    _ZTIN5veins17PhyControlMessageE @1114 DATA
    _ZTIN5veins18DeciderResult80211E @1115 DATA
    _ZTIN5veins18RoadsOsgVisualizerE @1116 DATA
    _ZTIN5veins19AddressingInterfaceE @1117 DATA
    _ZTIN5veins19PhyToMacControlInfoE @1118 DATA
    _ZTIN5veins19SimplePathlossModelE @1119 DATA
    _ZTIN5veins19TraCIDemo11pMessageE @1120 DATA
    _ZTIN5veins19TraCIScreenRecorderE @1121 DATA
    _ZTIN5veins20MacToNetwControlInfoE @1122 DATA
    _ZTIN5veins20NetwToMacControlInfoE @1123 DATA
    _ZTIN5veins20TraCIScenarioManagerE @1124 DATA
    _ZTIN5veins20TraCIVehicleInserterE @1125 DATA
    _ZTIN5veins21BaseConnectionManagerE @1126 DATA
    _ZTIN5veins21DeciderToPhyInterfaceE @1127 DATA
    _ZTIN5veins21RoadsCanvasVisualizerE @1128 DATA
    _ZTIN5veins22MacToPhyControlInfo11pE @1129 DATA
    _ZTIN5veins22VehicleObstacleControlE @1130 DATA
    _ZTIN5veins23BreakpointPathlossModelE @1131 DATA
    _ZTIN5veins23DemoServiceAdvertismentE @1132 DATA
    _ZTIN5veins23SimpleObstacleShadowingE @1133 DATA
    _ZTIN5veins23TwoRayInterferenceModelE @1134 DATA
    _ZTIN5veins24TraCITrafficLightMessageE @1135 DATA
    _ZTIN5veins24VehicleObstacleShadowingE @1136 DATA
    _ZTIN5veins26Mac80211pToPhy11pInterfaceE @1137 DATA
    _ZTIN5veins26TraCIScenarioManagerForkerE @1138 DATA
    _ZTIN5veins26TraCITrafficLightInterfaceE @1139 DATA
    _ZTIN5veins27TraCIScenarioManagerLaunchdE @1140 DATA
    _ZTIN5veins28TraCITrafficLightSimpleLogicE @1141 DATA
    _ZTIN5veins30TraCITrafficLightAbstractLogicE @1142 DATA
    _ZTIN5veins33Decider80211pToPhy80211pInterfaceE @1143 DATA
    _ZTIN5veins37DemoBaseApplLayerToMac1609_4InterfaceE @1144 DATA
    _ZTIN5veins3POAE @1145 DATA
    _ZTIN5veins4MoveE @1146 DATA
    _ZTIN5veins5CoordE @1147 DATA
    _ZTIN5veins5RadioE @1148 DATA
    _ZTIN5veins6MacPktE @1149 DATA
    _ZTIN5veins7AntennaE @1150 DATA
    _ZTIN5veins7DeciderE @1151 DATA
    _ZTIN5veins8AirFrameE @1152 DATA
    _ZTIN5veins8NicEntryE @1153 DATA
    _ZTIN5veins8PERModelE @1154 DATA
    _ZTIN5veins9BaseLayerE @1155 DATA
    _ZTIN5veins9BorderMsgE @1156 DATA
    _ZTIN5veins9HostStateE @1157 DATA
    _ZTIN5veins9Mac1609_4E @1158 DATA
    _ZTTN5veins26TraCIScenarioManagerForkerE @1159 DATA
    _ZTTN5veins27TraCIScenarioManagerLaunchdE @1160 DATA
    _ZTVN5veins10BaseModuleE @1161 DATA
    _ZTVN5veins10DrawAmountE @1162 DATA
    _ZTVN5veins10MyVeinsAppE @1163 DATA
    _ZTVN5veins11AirFrame11pE @1164 DATA
    _ZTVN5veins11BaseBatteryE @1165 DATA
    _ZTVN5veins11BaseDeciderE @1166 DATA
    _ZTVN5veins11ChannelInfoE @1167 DATA
    _ZTVN5veins11Mac80211AckE @1168 DATA
    _ZTVN5veins11Mac80211PktE @1169 DATA
    _ZTVN5veins12BaseMacLayerE @1170 DATA
    _ZTVN5veins12BaseMobilityE @1171 DATA
    _ZTVN5veins12BasePhyLayerE @1172 DATA
    _ZTVN5veins12TraCIDemo11pE @1173 DATA
    _ZTVN5veins13AnalogueModelE @1174 DATA
    _ZTVN5veins13BaseApplLayerE @1175 DATA
    _ZTVN5veins13BatteryAccessE @1176 DATA
    _ZTVN5veins13ChannelAccessE @1177 DATA
    _ZTVN5veins13Decider80211pE @1178 DATA
    _ZTVN5veins13DeciderResultE @1179 DATA
    _ZTVN5veins13NicEntryDebugE @1180 DATA
    _ZTVN5veins13PassedMessageE @1181 DATA
    _ZTVN5veins13TraCIMobilityE @1182 DATA
    _ZTVN5veins14LinearMobilityE @1183 DATA
    _ZTVN5veins14NakagamiFadingE @1184 DATA
    _ZTVN5veins14NicEntryDirectE @1185 DATA
    _ZTVN5veins14PhyLayer80211pE @1186 DATA
    _ZTVN5veins15AnnotationDummyE @1187 DATA
    _ZTVN5veins15BaseFrame1609_4E @1188 DATA
    _ZTVN5veins15ObstacleControlE @1189 DATA
    _ZTVN5veins15TraCIDemoRSU11pE @1190 DATA
    _ZTVN5veins16BaseWorldUtilityE @1191 DATA
    _ZTVN5veins16SampledAntenna1DE @1192 DATA
    _ZTVN5veins17AckTimeOutMessageE @1193 DATA
    _ZTVN5veins17AnnotationManager10AnnotationE @1194 DATA
    _ZTVN5veins17AnnotationManager4LineE @1195 DATA
    _ZTVN5veins17AnnotationManager5GroupE @1196 DATA
    _ZTVN5veins17AnnotationManager5PointE @1197 DATA
    _ZTVN5veins17AnnotationManager7PolygonE @1198 DATA
    _ZTVN5veins17AnnotationManagerE @1199 DATA
    _ZTVN5veins17ConnectionManagerE @1200 DATA
    _ZTVN5veins17DemoBaseApplLayerE @1201 DATA
    _ZTVN5veins17DemoSafetyMessageE @1202 DATA
    _ZTVN5veins17MacToPhyInterfaceE @1203 DATA
    _ZTVN5veins17PhyControlMessageE @1204 DATA
    _ZTVN5veins18DeciderResult80211E @1205 DATA
    _ZTVN5veins18RoadsOsgVisualizerE @1206 DATA
    _ZTVN5veins19AddressingInterfaceE @1207 DATA
    _ZTVN5veins19PhyToMacControlInfoE @1208 DATA
    _ZTVN5veins19SimplePathlossModelE @1209 DATA
    _ZTVN5veins19TraCIDemo11pMessageE @1210 DATA
    _ZTVN5veins19TraCIScreenRecorderE @1211 DATA
    _ZTVN5veins20MacToNetwControlInfoE @1212 DATA
    _ZTVN5veins20NetwToMacControlInfoE @1213 DATA
    _ZTVN5veins20TraCIScenarioManagerE @1214 DATA
    _ZTVN5veins20TraCIVehicleInserterE @1215 DATA
    _ZTVN5veins21BaseConnectionManagerE @1216 DATA
    _ZTVN5veins21DeciderToPhyInterfaceE @1217 DATA
    _ZTVN5veins21RoadsCanvasVisualizerE @1218 DATA
    _ZTVN5veins22MacToPhyControlInfo11pE @1219 DATA
    _ZTVN5veins22VehicleObstacleControlE @1220 DATA
    _ZTVN5veins23BreakpointPathlossModelE @1221 DATA
    _ZTVN5veins23DemoServiceAdvertismentE @1222 DATA
    _ZTVN5veins23SimpleObstacleShadowingE @1223 DATA
    _ZTVN5veins23TwoRayInterferenceModelE @1224 DATA
    _ZTVN5veins24TraCITrafficLightMessageE @1225 DATA
    _ZTVN5veins24VehicleObstacleShadowingE @1226 DATA
    _ZTVN5veins26Mac80211pToPhy11pInterfaceE @1227 DATA
    _ZTVN5veins26TraCIScenarioManagerForkerE @1228 DATA
    _ZTVN5veins26TraCITrafficLightInterfaceE @1229 DATA
    _ZTVN5veins27TraCIScenarioManagerLaunchdE @1230 DATA
    _ZTVN5veins28TraCITrafficLightSimpleLogicE @1231 DATA
    _ZTVN5veins30TraCITrafficLightAbstractLogicE @1232 DATA
    _ZTVN5veins33Decider80211pToPhy80211pInterfaceE @1233 DATA
    _ZTVN5veins37DemoBaseApplLayerToMac1609_4InterfaceE @1234 DATA
    _ZTVN5veins3POAE @1235 DATA
    _ZTVN5veins4MoveE @1236 DATA
    _ZTVN5veins5CoordE @1237 DATA
    _ZTVN5veins5RadioE @1238 DATA
    _ZTVN5veins6MacPktE @1239 DATA
    _ZTVN5veins7AntennaE @1240 DATA
    _ZTVN5veins7DeciderE @1241 DATA
    _ZTVN5veins8AirFrameE @1242 DATA
    _ZTVN5veins8NicEntryE @1243 DATA
    _ZTVN5veins8PERModelE @1244 DATA
    _ZTVN5veins9BaseLayerE @1245 DATA
    _ZTVN5veins9BorderMsgE @1246 DATA
    _ZTVN5veins9HostStateE @1247 DATA
    _ZTVN5veins9Mac1609_4E @1248 DATA
    _ZThn216_N5veins10BaseModule13receiveSignalEPN7omnetpp10cComponentEiPNS1_7cObjectES5_ @1249
    _ZThn216_N5veins10BaseModule6finishEPN7omnetpp10cComponentEi @1250
    _ZThn216_N5veins10BaseModuleD0Ev @1251
    _ZThn216_N5veins10BaseModuleD1Ev @1252
    _ZThn216_N5veins10MyVeinsAppD0Ev @1253
    _ZThn216_N5veins10MyVeinsAppD1Ev @1254
    _ZThn216_N5veins12BaseMacLayerD0Ev @1255
    _ZThn216_N5veins12BaseMacLayerD1Ev @1256
    _ZThn216_N5veins12BaseMobilityD0Ev @1257
    _ZThn216_N5veins12BaseMobilityD1Ev @1258
    _ZThn216_N5veins12BasePhyLayerD0Ev @1259
    _ZThn216_N5veins12BasePhyLayerD1Ev @1260
    _ZThn216_N5veins12TraCIDemo11pD0Ev @1261
    _ZThn216_N5veins12TraCIDemo11pD1Ev @1262
    _ZThn216_N5veins13BaseApplLayerD0Ev @1263
    _ZThn216_N5veins13BaseApplLayerD1Ev @1264
    _ZThn216_N5veins13BatteryAccessD0Ev @1265
    _ZThn216_N5veins13BatteryAccessD1Ev @1266
    _ZThn216_N5veins13ChannelAccess13receiveSignalEPN7omnetpp10cComponentEiPNS1_7cObjectES5_ @1267
    _ZThn216_N5veins13ChannelAccessD0Ev @1268
    _ZThn216_N5veins13ChannelAccessD1Ev @1269
    _ZThn216_N5veins13TraCIMobilityD0Ev @1270
    _ZThn216_N5veins13TraCIMobilityD1Ev @1271
    _ZThn216_N5veins14LinearMobilityD0Ev @1272
    _ZThn216_N5veins14LinearMobilityD1Ev @1273
    _ZThn216_N5veins14PhyLayer80211pD0Ev @1274
    _ZThn216_N5veins14PhyLayer80211pD1Ev @1275
    _ZThn216_N5veins15TraCIDemoRSU11pD0Ev @1276
    _ZThn216_N5veins15TraCIDemoRSU11pD1Ev @1277
    _ZThn216_N5veins17DemoBaseApplLayer13receiveSignalEPN7omnetpp10cComponentEiPNS1_7cObjectES5_ @1278
    _ZThn216_N5veins17DemoBaseApplLayerD0Ev @1279
    _ZThn216_N5veins17DemoBaseApplLayerD1Ev @1280
    _ZThn216_N5veins20TraCIScenarioManager14lifecycleEventEN7omnetpp28SimulationLifecycleEventTypeEPNS1_7cObjectE @1281
    _ZThn216_N5veins20TraCIScenarioManager15listenerRemovedEv @1282
    _ZThn216_N5veins20TraCIScenarioManagerD0Ev @1283
    _ZThn216_N5veins20TraCIScenarioManagerD1Ev @1284
    _ZThn216_N5veins20TraCIVehicleInserter13receiveSignalEPN7omnetpp10cComponentEiPNS1_7cObjectES5_ @1285
    _ZThn216_N5veins20TraCIVehicleInserter13receiveSignalEPN7omnetpp10cComponentEiRKNS1_7SimTimeEPNS1_7cObjectE @1286
    _ZThn216_N5veins20TraCIVehicleInserter6finishEPN7omnetpp10cComponentEi @1287
    _ZThn216_N5veins20TraCIVehicleInserterD0Ev @1288
    _ZThn216_N5veins20TraCIVehicleInserterD1Ev @1289
    _ZThn216_N5veins9BaseLayerD0Ev @1290
    _ZThn216_N5veins9BaseLayerD1Ev @1291
    _ZThn216_N5veins9Mac1609_4D0Ev @1292
    _ZThn216_N5veins9Mac1609_4D1Ev @1293
    _ZThn304_N5veins9Mac1609_413getMACAddressEv @1294
    _ZThn304_N5veins9Mac1609_419isCurrentChannelCCHEv @1295
    _ZThn304_N5veins9Mac1609_420changeServiceChannelENS_7ChannelE @1296
    _ZThn304_N5veins9Mac1609_420getSwitchingIntervalEv @1297
    _ZThn304_N5veins9Mac1609_424isChannelSwitchingActiveEv @1298
    _ZThn304_N5veins9Mac1609_4D0Ev @1299
    _ZThn304_N5veins9Mac1609_4D1Ev @1300
    _ZThn424_N5veins12BasePhyLayer12recordScalarEPKcdS2_ @1301
    _ZThn424_N5veins12BasePhyLayer14getChannelInfoERKN7omnetpp7SimTimeES4_RNSt7__cxx114listIPNS_8AirFrameESaIS8_EEE @1302
    _ZThn424_N5veins12BasePhyLayer15getWorldUtilityEv @1303
    _ZThn424_N5veins12BasePhyLayer18getNoiseFloorValueEv @1304
    _ZThn424_N5veins12BasePhyLayer19sendControlMsgToMacEPN7omnetpp8cMessageE @1305
    _ZThn424_N5veins12BasePhyLayer22getCurrentRadioChannelEv @1306
    _ZThn424_N5veins12BasePhyLayer6sendUpEPNS_8AirFrameEPNS_13DeciderResultE @1307
    _ZThn424_N5veins12BasePhyLayerD0Ev @1308
    _ZThn424_N5veins12BasePhyLayerD1Ev @1309
    _ZThn424_N5veins14PhyLayer80211pD0Ev @1310
    _ZThn424_N5veins14PhyLayer80211pD1Ev @1311
    _ZThn432_N5veins12BasePhyLayer13getRadioStateEv @1312
    _ZThn432_N5veins12BasePhyLayer13setRadioStateEi @1313
    _ZThn432_N5veins12BasePhyLayer18getNbRadioChannelsEv @1314
    _ZThn432_N5veins12BasePhyLayer22getCurrentRadioChannelEv @1315
    _ZThn432_N5veins12BasePhyLayer22setCurrentRadioChannelEi @1316
    _ZThn432_N5veins12BasePhyLayerD0Ev @1317
    _ZThn432_N5veins12BasePhyLayerD1Ev @1318
    _ZThn432_N5veins14PhyLayer80211p13getRadioStateEv @1319
    _ZThn432_N5veins14PhyLayer80211p13setRadioStateEi @1320
    _ZThn432_N5veins14PhyLayer80211pD0Ev @1321
    _ZThn432_N5veins14PhyLayer80211pD1Ev @1322
    _ZThn784_N5veins14PhyLayer80211p15setCCAThresholdEd @1323
    _ZThn784_N5veins14PhyLayer80211p21notifyMacAboutRxStartEb @1324
    _ZThn784_N5veins14PhyLayer80211p22changeListeningChannelENS_7ChannelE @1325
    _ZThn784_N5veins14PhyLayer80211p26requestChannelStatusIfIdleEv @1326
    _ZThn784_N5veins14PhyLayer80211pD0Ev @1327
    _ZThn784_N5veins14PhyLayer80211pD1Ev @1328
    _ZThn784_NK5veins14PhyLayer80211p16getFrameDurationEiNS_3MCSE @1329
    _ZThn792_N5veins14PhyLayer80211p13getRadioStateEv @1330
    _ZThn792_N5veins14PhyLayer80211pD0Ev @1331
    _ZThn792_N5veins14PhyLayer80211pD1Ev @1332
    _ZTv0_n1464_N5veins27TraCIScenarioManagerLaunchd10init_traciEv @1333
    _ZTv0_n1488_NK5veins26TraCIScenarioManagerForker13getPortNumberEv @1334
    _ZTv0_n280_N5veins26TraCIScenarioManagerForker10initializeEi @1335
    _ZTv0_n280_N5veins27TraCIScenarioManagerLaunchd10initializeEi @1336
    _ZTv0_n304_N5veins26TraCIScenarioManagerForker6finishEv @1337
    _ZTv0_n304_N5veins27TraCIScenarioManagerLaunchd6finishEv @1338
    _ZTv0_n48_N5veins26TraCIScenarioManagerForkerD0Ev @1339
    _ZTv0_n48_N5veins26TraCIScenarioManagerForkerD1Ev @1340
    _ZTv0_n48_N5veins27TraCIScenarioManagerLaunchdD0Ev @1341
    _ZTv0_n48_N5veins27TraCIScenarioManagerLaunchdD1Ev @1342
    _ZTvn216_n48_N5veins26TraCIScenarioManagerForkerD0Ev @1343
    _ZTvn216_n48_N5veins26TraCIScenarioManagerForkerD1Ev @1344
    _ZTvn216_n48_N5veins27TraCIScenarioManagerLaunchdD0Ev @1345
    _ZTvn216_n48_N5veins27TraCIScenarioManagerLaunchdD1Ev @1346
